(dp0
c__builtin__
frozenset
p1
((lp2
S'57043'
p3
aS'55026'
p4
atp5
Rp6
F0.027458492975734355
sg1
((lp7
S'55015'
p8
aS'581324'
p9
atp10
Rp11
F0.004469987228607918
sg1
((lp12
S'55277'
p13
atp14
Rp15
F0.027458492975734355
sg1
((lp16
S'57016'
p17
aS'57017'
p18
atp19
Rp20
F0.29565772669220947
sg1
((lp21
S'582215'
p22
atp23
Rp24
F0.0983397190293742
sg1
((lp25
S'57594'
p26
aS'55310'
p27
atp28
Rp29
F0.007662835249042145
sg1
((lp30
g17
ag3
aS'57274'
p31
atp32
Rp33
F0.1839080459770115
sg1
((lp34
S'55315'
p35
aS'581325'
p36
atp37
Rp38
F0.02554278416347382
sg1
((lp39
S'55314'
p40
aS'57047'
p41
atp42
Rp43
F0.05555555555555555
sg1
((lp44
g31
ag26
atp45
Rp46
F0.10664112388250319
sg1
((lp47
S'582315'
p48
atp49
Rp50
F0.028735632183908046
sg1
((lp51
S'57014'
p52
ag40
atp53
Rp54
F0.02937420178799489
sg1
((lp55
g40
aS'581328'
p56
atp57
Rp58
F0.008939974457215836
sg1
((lp59
S'582103'
p60
ag40
atp61
Rp62
F0.01979565772669221
sg1
((lp63
S'582102'
p64
ag31
atp65
Rp66
F0.12579821200510855
sg1
((lp67
g8
ag4
ag40
atp68
Rp69
F0.24521072796934865
sg1
((lp70
S'55508'
p71
atp72
Rp73
F0.12005108556832694
sg1
((lp74
g64
ag27
atp75
Rp76
F0.005108556832694764
sg1
((lp77
g18
aS'57039'
p78
atp79
Rp80
F0.033205619412515965
sg1
((lp81
g3
aS'57045'
p82
ag31
atp83
Rp84
F0.12132822477650064
sg1
((lp85
g52
ag31
atp86
Rp87
F0.14303959131545338
sg1
((lp88
g8
ag78
atp89
Rp90
F0.09259259259259259
sg1
((lp91
S'57241'
p92
atp93
Rp94
F0.015964240102171137
sg1
((lp95
g35
aS'57033'
p96
atp97
Rp98
F0.0210727969348659
sg1
((lp99
S'582631'
p100
atp101
Rp102
F0.02681992337164751
sg1
((lp103
S'57591'
p104
atp105
Rp106
F0.06896551724137931
sg1
((lp107
g3
ag26
ag41
atp108
Rp109
F0.19987228607918264
sg1
((lp110
g3
ag26
ag82
atp111
Rp112
F0.12643678160919541
sg1
((lp113
g17
aS'57049'
p114
atp115
Rp116
F0.13729246487867178
sg1
((lp117
g17
ag26
ag82
atp118
Rp119
F0.1206896551724138
sg1
((lp120
g8
ag4
aS'55521'
p121
ag40
atp122
Rp123
F0.20051085568326948
sg1
((lp124
g8
ag35
aS'55311'
p125
atp126
Rp127
F0.1768837803320562
sg1
((lp128
S'535026'
p129
atp130
Rp131
F0.038952745849297574
sg1
((lp132
g26
ag56
atp133
Rp134
F0.03384418901660281
sg1
((lp135
g35
aS'582104'
p136
atp137
Rp138
F0.0070242656449553
sg1
((lp139
g60
ag82
atp140
Rp141
F0.09642401021711366
sg1
((lp142
g114
atp143
Rp144
F0.21264367816091953
sg1
((lp145
S'58131'
p146
atp147
Rp148
F0.18773946360153257
sg1
((lp149
g40
ag27
atp150
Rp151
F0.21711366538952745
sg1
((lp152
g8
ag125
ag27
atp153
Rp154
F0.1768837803320562
sg1
((lp155
g3
ag31
atp156
Rp157
F0.23180076628352492
sg1
((lp158
g52
ag82
atp159
Rp160
F0.13537675606641125
sg1
((lp161
g121
ag78
atp162
Rp163
F0.08301404853128991
sg1
((lp164
S'57048'
p165
atp166
Rp167
F0.11621966794380588
sg1
((lp168
g52
ag41
atp169
Rp170
F0.20051085568326948
sg1
((lp171
g4
aS'57044'
p172
atp173
Rp174
F0.008301404853128991
sg1
((lp175
S'57102'
p176
atp177
Rp178
F0.0210727969348659
sg1
((lp179
g18
ag172
atp180
Rp181
F0.17496807151979565
sg1
((lp182
g41
ag9
atp183
Rp184
F0.04853128991060025
sg1
((lp185
S'57079'
p186
atp187
Rp188
F0.04469987228607918
sg1
((lp189
g114
ag35
atp190
Rp191
F0.024265644955300127
sg1
((lp192
g125
ag27
atp193
Rp194
F0.17943805874840357
sg1
((lp195
g18
ag27
atp196
Rp197
F0.03639846743295019
sg1
((lp198
S'55527'
p199
atp200
Rp201
F0.05491698595146871
sg1
((lp202
g8
ag52
atp203
Rp204
F0.02681992337164751
sg1
((lp205
S'58161'
p206
atp207
Rp208
F0.10855683269476372
sg1
((lp209
g31
ag78
atp210
Rp211
F0.09514687100893997
sg1
((lp212
S'530281'
p213
atp214
Rp215
F0.14559386973180077
sg1
((lp216
S'582365'
p217
atp218
Rp219
F0.03065134099616858
sg1
((lp220
g36
ag9
atp221
Rp222
F0.21455938697318008
sg1
((lp223
g26
ag121
atp224
Rp225
F0.017241379310344827
sg1
((lp226
S'53704'
p227
ag172
atp228
Rp229
F0.04661558109833972
sg1
((lp230
g3
ag31
ag36
atp231
Rp232
F0.12579821200510855
sg1
((lp233
g17
ag18
ag41
atp234
Rp235
F0.25734355044699875
sg1
((lp236
S'582203'
p237
atp238
Rp239
F0.11685823754789272
sg1
((lp240
S'582498'
p241
atp242
Rp243
F0.022988505747126436
sg1
((lp244
g64
ag82
atp245
Rp246
F0.06577266922094509
sg1
((lp247
g227
ag9
atp248
Rp249
F0.006385696040868455
sg1
((lp250
g4
ag56
atp251
Rp252
F0.005108556832694764
sg1
((lp253
g114
ag64
atp254
Rp255
F0.1040868454661558
sg1
((lp256
g35
atp257
Rp258
F0.3052362707535121
sg1
((lp259
g172
ag136
atp260
Rp261
F0.038314176245210725
sg1
((lp262
g18
ag31
atp263
Rp264
F0.16283524904214558
sg1
((lp265
S'530136'
p266
atp267
Rp268
F0.10344827586206896
sg1
((lp269
g136
ag27
atp270
Rp271
F0.006385696040868455
sg1
((lp272
g4
ag78
atp273
Rp274
F0.08620689655172414
sg1
((lp275
g17
ag18
ag26
atp276
Rp277
F0.1698595146871009
sg1
((lp278
S'53602'
p279
atp280
Rp281
F0.018518518518518517
sg1
((lp282
g17
ag78
atp283
Rp284
F0.07343550446998723
sg1
((lp285
S'530144'
p286
atp287
Rp288
F0.002554278416347382
sg1
((lp289
g136
ag125
atp290
Rp291
F0.006385696040868455
sg1
((lp292
S'55285'
p293
atp294
Rp295
F0.015964240102171137
sg1
((lp296
g3
ag56
atp297
Rp298
F0.13473818646232438
sg1
((lp299
g82
ag96
atp300
Rp301
F0.08939974457215837
sg1
((lp302
g227
ag96
atp303
Rp304
F0.030012771392081736
sg1
((lp305
g56
ag36
atp306
Rp307
F0.2037037037037037
sg1
((lp308
g78
ag41
atp309
Rp310
F0.0491698595146871
sg1
((lp311
g64
atp312
Rp313
F0.21455938697318008
sg1
((lp314
g82
ag36
atp315
Rp316
F0.10919540229885058
sg1
((lp317
g227
ag78
atp318
Rp319
F0.014687100893997445
sg1
((lp320
g40
ag136
atp321
Rp322
F0.008939974457215836
sg1
((lp323
g17
ag3
ag41
atp324
Rp325
F0.31417624521072796
sg1
((lp326
g35
ag27
atp327
Rp328
F0.20242656449553
sg1
((lp329
g26
atp330
Rp331
F0.22286079182630908
sg1
((lp332
g121
ag41
atp333
Rp334
F0.04086845466155811
sg1
((lp335
S'57058'
p336
atp337
Rp338
F0.021711366538952746
sg1
((lp339
S'582519'
p340
atp341
Rp342
F0.010855683269476373
sg1
((lp343
g64
ag60
atp344
Rp345
F0.17879948914431673
sg1
((lp346
S'57705'
p347
atp348
Rp349
F0.04469987228607918
sg1
((lp350
g17
ag82
ag41
atp351
Rp352
F0.1883780332056194
sg1
((lp353
S'581251'
p354
atp355
Rp356
F0.038952745849297574
sg1
((lp357
g3
ag82
ag36
atp358
Rp359
F0.08876117496807152
sg1
((lp360
g35
ag26
atp361
Rp362
F0.020434227330779056
sg1
((lp363
S'57064'
p364
atp365
Rp366
F0.011494252873563218
sg1
((lp367
g64
ag136
atp368
Rp369
F0.16475095785440613
sg1
((lp370
S'530094'
p371
atp372
Rp373
F0.14240102171136654
sg1
((lp374
g8
ag125
atp375
Rp376
F0.20434227330779056
sg1
((lp377
g17
ag125
atp378
Rp379
F0.044061302681992334
sg1
((lp380
g17
ag9
atp381
Rp382
F0.07215836526181353
sg1
((lp383
S'582659'
p384
atp385
Rp386
F0.010217113665389528
sg1
((lp387
g35
ag56
atp388
Rp389
F0.0070242656449553
sg1
((lp390
S'55034'
p391
atp392
Rp393
F0.070242656449553
sg1
((lp394
g31
ag96
atp395
Rp396
F0.11558109833971902
sg1
((lp397
g60
ag35
atp398
Rp399
F0.018518518518518517
sg1
((lp400
S'55036'
p401
atp402
Rp403
F0.026181353767560665
sg1
((lp404
g35
ag52
atp405
Rp406
F0.02490421455938697
sg1
((lp407
g18
ag3
atp408
Rp409
F0.28735632183908044
sg1
((lp410
g4
ag96
atp411
Rp412
F0.010217113665389528
sg1
((lp413
S'57015'
p414
atp415
Rp416
F0.1781609195402299
sg1
((lp417
S'55324'
p418
atp419
Rp420
F0.13665389527458494
sg1
((lp421
g3
ag40
atp422
Rp423
F0.06832694763729247
sg1
((lp424
g64
ag26
atp425
Rp426
F0.020434227330779056
sg1
((lp427
S'55402'
p428
atp429
Rp430
F0.12260536398467432
sg1
((lp431
g40
ag36
atp432
Rp433
F0.028735632183908046
sg1
((lp434
g8
ag35
ag27
atp435
Rp436
F0.19987228607918264
sg1
((lp437
g8
ag35
ag4
atp438
Rp439
F0.2247765006385696
sg1
((lp440
g64
ag9
atp441
Rp442
F0.19157088122605365
sg1
((lp443
g64
ag36
atp444
Rp445
F0.20561941251596424
sg1
((lp446
S'530137'
p447
atp448
Rp449
F0.07215836526181353
sg1
((lp450
g60
ag56
atp451
Rp452
F0.18901660280970625
sg1
((lp453
g8
ag121
ag27
atp454
Rp455
F0.18901660280970625
sg1
((lp456
g52
ag78
atp457
Rp458
F0.03065134099616858
sg1
((lp459
g56
ag27
atp460
Rp461
F0.005108556832694764
sg1
((lp462
S'530000'
p463
atp464
Rp465
F0.11302681992337164
sg1
((lp466
g17
ag3
ag26
ag41
atp467
Rp468
F0.19029374201787994
sg1
((lp469
S'582101'
p470
atp471
Rp472
F0.020434227330779056
sg1
((lp473
S'55727'
p474
atp475
Rp476
F0.040229885057471264
sg1
((lp477
S'530177'
p478
atp479
Rp480
F0.02362707535121328
sg1
((lp481
g17
ag56
atp482
Rp483
F0.10153256704980843
sg1
((lp484
g3
ag26
ag36
atp485
Rp486
F0.06704980842911877
sg1
((lp487
S'57067'
p488
atp489
Rp490
F0.022988505747126436
sg1
((lp491
g227
atp492
Rp493
F0.227330779054917
sg1
((lp494
S'53541'
p495
atp496
Rp497
F0.019157088122605363
sg1
((lp498
g40
ag4
ag121
atp499
Rp500
F0.2037037037037037
sg1
((lp501
g40
ag172
atp502
Rp503
F0.034482758620689655
sg1
((lp504
S'53399'
p505
atp506
Rp507
F0.035759897828863345
sg1
((lp508
g26
ag125
atp509
Rp510
F0.008939974457215836
sg1
((lp511
g60
ag56
ag36
atp512
Rp513
F0.18071519795657726
sg1
((lp514
g17
ag82
atp515
Rp516
F0.2164750957854406
sg1
((lp517
g52
ag3
atp518
Rp519
F0.21136653895274585
sg1
((lp520
g40
ag4
atp521
Rp522
F0.25287356321839083
sg1
((lp523
g227
ag36
atp524
Rp525
F0.07343550446998723
sg1
((lp526
g18
ag40
atp527
Rp528
F0.05683269476372925
sg1
((lp529
S'530171'
p530
atp531
Rp532
F0.0019157088122605363
sg1
((lp533
g56
ag96
atp534
Rp535
F0.0842911877394636
sg1
((lp536
S'582482'
p537
atp538
Rp539
F0.027458492975734355
sg1
((lp540
S'55395'
p541
atp542
Rp543
F0.04533844189016603
sg1
((lp544
g227
ag3
atp545
Rp546
F0.06577266922094509
sg1
((lp547
g8
ag40
atp548
Rp549
F0.2905491698595147
sg1
((lp550
g3
ag41
atp551
Rp552
F0.342911877394636
sg1
((lp553
g17
atp554
Rp555
F0.4335887611749681
sg1
((lp556
g3
ag172
atp557
Rp558
F0.18646232439335889
sg1
((lp559
S'55004'
p560
atp561
Rp562
F0.026181353767560665
sg1
((lp563
g26
ag96
atp564
Rp565
F0.10217113665389528
sg1
((lp566
S'582351'
p567
atp568
Rp569
F0.0351213282247765
sg1
((lp570
g4
atp571
Rp572
F0.2611749680715198
sg1
((lp573
g3
ag26
ag31
atp574
Rp575
F0.10664112388250319
sg1
((lp576
g8
ag40
ag125
atp577
Rp578
F0.19476372924648785
sg1
((lp579
S'554182'
p580
atp581
Rp582
F0.02554278416347382
sg1
((lp583
g78
ag136
atp584
Rp585
F0.11877394636015326
sg1
((lp586
g18
ag36
atp587
Rp588
F0.1111111111111111
sg1
((lp589
g60
ag136
ag36
atp590
Rp591
F0.1966794380587484
sg1
((lp592
g40
ag35
ag4
atp593
Rp594
F0.2260536398467433
sg1
((lp595
g82
ag136
atp596
Rp597
F0.07598978288633461
sg1
((lp598
S'582462'
p599
atp600
Rp601
F0.013409961685823755
sg1
((lp602
S'55483'
p603
atp604
Rp605
F0.018518518518518517
sg1
((lp606
g18
ag227
atp607
Rp608
F0.06385696040868455
sg1
((lp609
S'582204'
p610
atp611
Rp612
F0.05363984674329502
sg1
((lp613
S'57137'
p614
atp615
Rp616
F0.02681992337164751
sg1
((lp617
g9
ag96
atp618
Rp619
F0.09003831417624521
sg1
((lp620
g40
ag125
atp621
Rp622
F0.1966794380587484
sg1
((lp623
g31
ag125
atp624
Rp625
F0.019157088122605363
sg1
((lp626
g227
ag26
atp627
Rp628
F0.017879948914431672
sg1
((lp629
g64
ag96
atp630
Rp631
F0.08620689655172414
sg1
((lp632
g17
ag64
atp633
Rp634
F0.08045977011494253
sg1
((lp635
g26
ag82
atp636
Rp637
F0.12643678160919541
sg1
((lp638
g4
ag41
atp639
Rp640
F0.019157088122605363
sg1
((lp641
S'582216'
p642
atp643
Rp644
F0.09514687100893997
sg1
((lp645
S'57596'
p646
atp647
Rp648
F0.13793103448275862
sg1
((lp649
g35
ag82
atp650
Rp651
F0.04597701149425287
sg1
((lp652
g114
ag41
atp653
Rp654
F0.1251596424010217
sg1
((lp655
g56
ag41
atp656
Rp657
F0.07598978288633461
sg1
((lp658
S'582368'
p659
atp660
Rp661
F0.03384418901660281
sg1
((lp662
g114
ag82
atp663
Rp664
F0.10791826309067688
sg1
((lp665
g56
ag78
atp666
Rp667
F0.11685823754789272
sg1
((lp668
S'53364'
p669
atp670
Rp671
F0.013409961685823755
sg1
((lp672
g8
ag60
atp673
Rp674
F0.017241379310344827
sg1
((lp675
g18
ag56
atp676
Rp677
F0.05747126436781609
sg1
((lp678
g52
ag3
ag41
atp679
Rp680
F0.19540229885057472
sg1
((lp681
S'55478'
p682
atp683
Rp684
F0.02937420178799489
sg1
((lp685
S'554181'
p686
atp687
Rp688
F0.03065134099616858
sg1
((lp689
g172
ag9
atp690
Rp691
F0.015964240102171137
sg1
((lp692
S'57057'
p693
atp694
Rp695
F0.042784163473818644
sg1
((lp696
S'57072'
p697
atp698
Rp699
F0.05236270753512133
sg1
((lp700
S'53001'
p701
atp702
Rp703
F0.18901660280970625
sg1
((lp704
g114
ag125
atp705
Rp706
F0.015964240102171137
sg1
((lp707
g17
ag121
atp708
Rp709
F0.06257982120051085
sg1
((lp710
S'582343'
p711
atp712
Rp713
F0.05300127713920817
sg1
((lp714
g8
ag35
ag4
ag121
ag40
atp715
Rp716
F0.19029374201787994
sg1
((lp717
S'53716'
p718
atp719
Rp720
F0.019157088122605363
sg1
((lp721
S'57003'
p722
atp723
Rp724
F0.014687100893997445
sg1
((lp725
g36
ag96
atp726
Rp727
F0.14814814814814814
sg1
((lp728
g8
atp729
Rp730
F0.30842911877394635
sg1
((lp731
g31
ag56
atp732
Rp733
F0.1360153256704981
sg1
((lp734
S'530282'
p735
atp736
Rp737
F0.1136653895274585
sg1
((lp738
g18
atp739
Rp740
F0.31992337164750956
sg1
((lp741
g3
ag82
ag41
atp742
Rp743
F0.1966794380587484
sg1
((lp744
S'53028'
p745
atp746
Rp747
F0.024265644955300127
sg1
((lp748
S'53058'
p749
atp750
Rp751
F0.014687100893997445
sg1
((lp752
g172
ag125
atp753
Rp754
F0.015964240102171137
sg1
((lp755
g52
ag125
atp756
Rp757
F0.017241379310344827
sg1
((lp758
g172
atp759
Rp760
F0.20178799489144317
sg1
((lp761
g227
ag40
atp762
Rp763
F0.04661558109833972
sg1
((lp764
S'58160'
p765
atp766
Rp767
F0.17305236270753513
sg1
((lp768
g35
ag4
atp769
Rp770
F0.23243933588761176
sg1
((lp771
g18
ag9
atp772
Rp773
F0.028735632183908046
sg1
((lp774
g17
ag8
atp775
Rp776
F0.06449553001277139
sg1
((lp777
g35
ag9
atp778
Rp779
F0.006385696040868455
sg1
((lp780
S'582302'
p781
atp782
Rp783
F0.026181353767560665
sg1
((lp784
g41
atp785
Rp786
F0.35759897828863346
sg1
((lp787
g8
ag35
ag4
ag40
atp788
Rp789
F0.21839080459770116
sg1
((lp790
g114
ag8
atp791
Rp792
F0.02490421455938697
sg1
((lp793
S'530105'
p794
atp795
Rp796
F0.041507024265644954
sg1
((lp797
g136
ag96
atp798
Rp799
F0.09897828863346105
sg1
((lp800
g227
ag31
atp801
Rp802
F0.027458492975734355
sg1
((lp803
g114
ag18
atp804
Rp805
F0.10600255427841634
sg1
((lp806
S'582505'
p807
atp808
Rp809
F0.05172413793103448
sg1
((lp810
S'582520'
p811
atp812
Rp813
F0.031289910600255426
sg1
((lp814
g82
ag9
atp815
Rp816
F0.05938697318007663
sg1
((lp817
g41
ag96
atp818
Rp819
F0.15772669220945082
sg1
((lp820
g114
ag172
atp821
Rp822
F0.07279693486590039
sg1
((lp823
g17
ag31
ag41
atp824
Rp825
F0.16475095785440613
sg1
((lp826
S'582325'
p827
atp828
Rp829
F0.02937420178799489
sg1
((lp830
g227
ag27
atp831
Rp832
F0.019157088122605363
sg1
((lp833
g64
ag8
atp834
Rp835
F0.004469987228607918
sg1
((lp836
g52
ag136
atp837
Rp838
F0.0561941251596424
sg1
((lp839
g64
ag52
atp840
Rp841
F0.04342273307790549
sg1
((lp842
S'53715'
p843
atp844
Rp845
F0.011494252873563218
sg1
((lp846
g125
ag9
atp847
Rp848
F0.0038314176245210726
sg1
((lp849
S'582640'
p850
atp851
Rp852
F0.0140485312899106
sg1
((lp853
S'57593'
p854
atp855
Rp856
F0.03959131545338442
sg1
((lp857
g64
ag172
atp858
Rp859
F0.022988505747126436
sg1
((lp860
g17
ag26
ag41
atp861
Rp862
F0.19029374201787994
sg1
((lp863
g31
ag121
atp864
Rp865
F0.02681992337164751
sg1
((lp866
S'582353'
p867
atp868
Rp869
F0.06130268199233716
sg1
((lp870
g17
ag3
ag26
atp871
Rp872
F0.20753512132822477
sg1
((lp873
g60
ag36
atp874
Rp875
F0.2822477650063857
sg1
((lp876
S'530147'
p877
atp878
Rp879
F0.01277139208173691
sg1
((lp880
g227
ag41
atp881
Rp882
F0.05172413793103448
sg1
((lp883
g3
ag96
atp884
Rp885
F0.20561941251596424
sg1
((lp886
g114
ag36
atp887
Rp888
F0.12835249042145594
sg1
((lp889
S'53724'
p890
atp891
Rp892
F0.0561941251596424
sg1
((lp893
S'530150'
p894
atp895
Rp896
F0.0006385696040868455
sg1
((lp897
g78
ag96
atp898
Rp899
F0.04980842911877394
sg1
((lp900
S'57063'
p901
atp902
Rp903
F0.017241379310344827
sg1
((lp904
S'53703'
p905
atp906
Rp907
F0.07854406130268199
sg1
((lp908
S'53726'
p909
atp910
Rp911
F0.02490421455938697
sg1
((lp912
g60
ag227
atp913
Rp914
F0.05683269476372925
sg1
((lp915
g17
ag227
atp916
Rp917
F0.07662835249042145
sg1
((lp918
S'57062'
p919
atp920
Rp921
F0.0280970625798212
sg1
((lp922
g227
ag52
atp923
Rp924
F0.03065134099616858
sg1
((lp925
g114
ag227
atp926
Rp927
F0.014687100893997445
sg1
((lp928
S'582506'
p929
atp930
Rp931
F0.05300127713920817
sg1
((lp932
S'582666'
p933
atp934
Rp935
F0.009578544061302681
sg1
((lp936
g52
ag172
atp937
Rp938
F0.13090676883780333
sg1
((lp939
g27
atp940
Rp941
F0.22860791826309068
sg1
((lp942
g114
ag40
atp943
Rp944
F0.027458492975734355
sg1
((lp945
S'582326'
p946
atp947
Rp948
F0.02937420178799489
sg1
((lp949
g121
ag96
atp950
Rp951
F0.018518518518518517
sg1
((lp952
g8
ag172
atp953
Rp954
F0.02681992337164751
sg1
((lp955
g52
ag9
atp956
Rp957
F0.040229885057471264
sg1
((lp958
g31
ag136
atp959
Rp960
F0.13473818646232438
sg1
((lp961
g8
ag27
atp962
Rp963
F0.2260536398467433
sg1
((lp964
g4
ag27
atp965
Rp966
F0.19348659003831417
sg1
((lp967
g17
ag36
atp968
Rp969
F0.15900383141762453
sg1
((lp970
S'582524'
p971
atp972
Rp973
F0.031289910600255426
sg1
((lp974
g60
ag27
atp975
Rp976
F0.0140485312899106
sg1
((lp977
g114
ag4
atp978
Rp979
F0.012132822477650063
sg1
((lp980
S'582516'
p981
atp982
Rp983
F0.008939974457215836
sg1
((lp984
g64
ag60
ag36
atp985
Rp986
F0.1756066411238825
sg1
((lp987
g31
ag82
atp988
Rp989
F0.13984674329501914
sg1
((lp990
S'582615'
p991
atp992
Rp993
F0.018518518518518517
sg1
((lp994
S'582330'
p995
atp996
Rp997
F0.038952745849297574
sg1
((lp998
g35
ag3
atp999
Rp1000
F0.05683269476372925
sg1
((lp1001
g121
ag136
atp1002
Rp1003
F0.008301404853128991
sg1
((lp1004
g8
ag96
atp1005
Rp1006
F0.019157088122605363
sg1
((lp1007
g17
ag40
atp1008
Rp1009
F0.07982120051085569
sg1
((lp1010
S'55111'
p1011
atp1012
Rp1013
F0.02362707535121328
sg1
((lp1014
g114
ag136
atp1015
Rp1016
F0.10217113665389528
sg1
((lp1017
g4
ag82
atp1018
Rp1019
F0.020434227330779056
sg1
((lp1020
g64
ag125
atp1021
Rp1022
F0.004469987228607918
sg1
((lp1023
g8
ag31
atp1024
Rp1025
F0.028735632183908046
sg1
((lp1026
g35
ag40
atp1027
Rp1028
F0.29118773946360155
sg1
((lp1029
g17
ag31
atp1030
Rp1031
F0.20178799489144317
sg1
((lp1032
g56
atp1033
Rp1034
F0.22158365261813537
sg1
((lp1035
g17
ag136
atp1036
Rp1037
F0.09450830140485313
sg1
((lp1038
g114
ag31
atp1039
Rp1040
F0.12899106002554278
sg1
((lp1041
S'53714'
p1042
atp1043
Rp1044
F0.017241379310344827
sg1
((lp1045
g64
ag3
atp1046
Rp1047
F0.11813537675606642
sg1
((lp1048
S'57592'
p1049
atp1050
Rp1051
F0.030012771392081736
sg1
((lp1052
S'581259'
p1053
atp1054
Rp1055
F0.09642401021711366
sg1
((lp1056
g31
ag172
atp1057
Rp1058
F0.10791826309067688
sg1
((lp1059
g40
ag35
ag4
ag121
atp1060
Rp1061
F0.19348659003831417
sg1
((lp1062
g8
ag35
ag40
ag121
atp1063
Rp1064
F0.21966794380587484
sg1
((lp1065
S'53337'
p1066
atp1067
Rp1068
F0.0280970625798212
sg1
((lp1069
g56
ag9
atp1070
Rp1071
F0.17177522349936142
sg1
((lp1072
S'530148'
p1073
atp1074
Rp1075
F0.08173690932311622
sg1
((lp1076
g52
ag121
atp1077
Rp1078
F0.020434227330779056
sg1
((lp1079
S'57599'
p1080
atp1081
Rp1082
F0.0210727969348659
sg1
((lp1083
S'57026'
p1084
atp1085
Rp1086
F0.0140485312899106
sg1
((lp1087
g60
ag121
atp1088
Rp1089
F0.018518518518518517
sg1
((lp1090
g114
ag56
atp1091
Rp1092
F0.10727969348659004
sg1
((lp1093
g35
ag4
ag121
atp1094
Rp1095
F0.19859514687100893
sg1
((lp1096
g227
ag56
atp1097
Rp1098
F0.0210727969348659
sg1
((lp1099
g8
ag35
ag4
ag121
atp1100
Rp1101
F0.19540229885057472
sg1
((lp1102
S'55238'
p1103
atp1104
Rp1105
F0.017879948914431672
sg1
((lp1106
S'530139'
p1107
atp1108
Rp1109
F0.06577266922094509
sg1
((lp1110
g17
ag52
ag3
atp1111
Rp1112
F0.19476372924648785
sg1
((lp1113
g64
ag35
atp1114
Rp1115
F0.004469987228607918
sg1
((lp1116
g26
ag41
atp1117
Rp1118
F0.19987228607918264
sg1
((lp1119
S'57101'
p1120
atp1121
Rp1122
F0.07854406130268199
sg1
((lp1123
S'57433'
p1124
atp1125
Rp1126
F0.011494252873563218
sg1
((lp1127
S'582507'
p1128
atp1129
Rp1130
F0.010217113665389528
sg1
((lp1131
g125
atp1132
Rp1133
F0.20689655172413793
sg1
((lp1134
g9
atp1135
Rp1136
F0.23180076628352492
sg1
((lp1137
S'55722'
p1138
atp1139
Rp1140
F0.01979565772669221
sg1
((lp1141
S'581332'
p1142
atp1143
Rp1144
F0.04661558109833972
sg1
((lp1145
g17
ag172
atp1146
Rp1147
F0.18710089399744573
sg1
((lp1148
S'582350'
p1149
atp1150
Rp1151
F0.0491698595146871
sg1
((lp1152
g3
ag125
atp1153
Rp1154
F0.035759897828863345
sg1
((lp1155
S'53705'
p1156
atp1157
Rp1158
F0.19604086845466157
sg1
((lp1159
g17
ag4
atp1160
Rp1161
F0.0351213282247765
sg1
((lp1162
g4
ag9
atp1163
Rp1164
F0.0031928480204342275
sg1
((lp1165
g36
ag27
atp1166
Rp1167
F0.017879948914431672
sg1
((lp1168
g17
ag31
ag26
atp1169
Rp1170
F0.10280970625798212
sg1
((lp1171
g18
ag125
atp1172
Rp1173
F0.034482758620689655
sg1
((lp1174
S'55025'
p1175
atp1176
Rp1177
F0.004469987228607918
sg1
((lp1178
g3
ag27
atp1179
Rp1180
F0.037675606641123884
sg1
((lp1181
g35
ag40
ag121
atp1182
Rp1183
F0.23499361430395913
sg1
((lp1184
g8
ag40
ag27
atp1185
Rp1186
F0.21519795657726692
sg1
((lp1187
S'57018'
p1188
atp1189
Rp1190
F0.05938697318007663
sg1
((lp1191
g4
ag26
atp1192
Rp1193
F0.0006385696040868455
sg1
((lp1194
g121
ag9
atp1195
Rp1196
F0.005108556832694764
sg1
((lp1197
g26
ag136
atp1198
Rp1199
F0.03384418901660281
sg1
((lp1200
g17
ag18
ag3
ag41
atp1201
Rp1202
F0.2509578544061303
sg1
((lp1203
g17
ag52
atp1204
Rp1205
F0.2037037037037037
sg1
((lp1206
g31
ag9
atp1207
Rp1208
F0.1251596424010217
sg1
((lp1209
g8
ag35
ag40
atp1210
Rp1211
F0.2567049808429119
sg1
((lp1212
S'581305'
p1213
atp1214
Rp1215
F0.16475095785440613
sg1
((lp1216
g121
ag172
atp1217
Rp1218
F0.026181353767560665
sg1
((lp1219
g60
atp1220
Rp1221
F0.30268199233716475
sg1
((lp1222
g3
ag136
atp1223
Rp1224
F0.1334610472541507
sg1
((lp1225
g8
ag4
ag121
atp1226
Rp1227
F0.2062579821200511
sg1
((lp1228
S'53379'
p1229
atp1230
Rp1231
F0.05363984674329502
sg1
((lp1232
g60
ag41
atp1233
Rp1234
F0.10664112388250319
sg1
((lp1235
g40
ag26
atp1236
Rp1237
F0.028735632183908046
sg1
((lp1238
S'530141'
p1239
atp1240
Rp1241
F0.01979565772669221
sg1
((lp1242
g31
ag41
atp1243
Rp1244
F0.1781609195402299
sg1
((lp1245
g60
ag3
atp1246
Rp1247
F0.17369093231162197
sg1
((lp1248
S'530215'
p1249
atp1250
Rp1251
F0.017241379310344827
sg1
((lp1252
g78
ag172
atp1253
Rp1254
F0.010855683269476373
sg1
((lp1255
g56
ag125
atp1256
Rp1257
F0.005108556832694764
sg1
((lp1258
g114
ag3
atp1259
Rp1260
F0.16283524904214558
sg1
((lp1261
g64
ag40
atp1262
Rp1263
F0.005747126436781609
sg1
((lp1264
g82
ag41
atp1265
Rp1266
F0.20051085568326948
sg1
((lp1267
g114
ag60
atp1268
Rp1269
F0.10983397190293742
sg1
((lp1270
S'55016'
p1271
atp1272
Rp1273
F0.0561941251596424
sg1
((lp1274
g82
atp1275
Rp1276
F0.25734355044699875
sg1
((lp1277
g136
ag9
atp1278
Rp1279
F0.17049808429118773
sg1
((lp1280
S'53727'
p1281
atp1282
Rp1283
F0.010855683269476373
sg1
((lp1284
S'55221'
p1285
atp1286
Rp1287
F0.018518518518518517
sg1
((lp1288
g36
atp1289
Rp1290
F0.3665389527458493
sg1
((lp1291
g3
ag82
atp1292
Rp1293
F0.22158365261813537
sg1
((lp1294
S'530283'
p1295
atp1296
Rp1297
F0.09961685823754789
sg1
((lp1298
g3
atp1299
Rp1300
F0.4661558109833972
sg1
((lp1301
S'57020'
p1302
atp1303
Rp1304
F0.18071519795657726
sg1
((lp1305
S'530244'
p1306
atp1307
Rp1308
F0.017879948914431672
sg1
((lp1309
g172
ag36
atp1310
Rp1311
F0.07407407407407407
sg1
((lp1312
g3
ag9
atp1313
Rp1314
F0.1123882503192848
sg1
((lp1315
g18
ag52
atp1316
Rp1317
F0.18518518518518517
sg1
((lp1318
g56
ag136
ag36
atp1319
Rp1320
F0.1641123882503193
sg1
((lp1321
g35
ag121
atp1322
Rp1323
F0.24393358876117496
sg1
((lp1324
g4
ag125
atp1325
Rp1326
F0.17369093231162197
sg1
((lp1327
g17
ag27
atp1328
Rp1329
F0.04725415070242656
sg1
((lp1330
g3
ag36
atp1331
Rp1332
F0.20114942528735633
sg1
((lp1333
g52
ag56
atp1334
Rp1335
F0.06385696040868455
sg1
((lp1336
g35
ag31
atp1337
Rp1338
F0.026181353767560665
sg1
((lp1339
g8
ag18
atp1340
Rp1341
F0.04725415070242656
sg1
((lp1342
g227
ag82
atp1343
Rp1344
F0.04086845466155811
sg1
((lp1345
g172
ag41
atp1346
Rp1347
F0.17943805874840357
sg1
((lp1348
g8
ag36
atp1349
Rp1350
F0.02234993614303959
sg1
((lp1351
g114
ag27
atp1352
Rp1353
F0.015964240102171137
sg1
((lp1354
g17
ag52
ag41
atp1355
Rp1356
F0.18773946360153257
sg1
((lp1357
g40
atp1358
Rp1359
F0.34610472541507026
sg1
((lp1360
S'582335'
p1361
atp1362
Rp1363
F0.07215836526181353
sg1
((lp1364
g121
ag27
atp1365
Rp1366
F0.19157088122605365
sg1
((lp1367
g17
ag35
atp1368
Rp1369
F0.06960408684546615
sg1
((lp1370
g8
ag26
atp1371
Rp1372
F0.020434227330779056
sg1
((lp1373
S'582646'
p1374
atp1375
Rp1376
F0.0140485312899106
sg1
((lp1377
S'53912'
p1378
atp1379
Rp1380
F0.01277139208173691
sg1
((lp1381
g40
ag78
atp1382
Rp1383
F0.09642401021711366
sg1
((lp1384
g64
ag56
ag36
atp1385
Rp1386
F0.1615581098339719
sg1
((lp1387
g18
ag26
atp1388
Rp1389
F0.17879948914431673
sg1
((lp1390
g18
ag82
atp1391
Rp1392
F0.18135376756066413
sg1
((lp1393
S'53014'
p1394
atp1395
Rp1396
F0.06066411238825032
sg1
((lp1397
g8
ag227
atp1398
Rp1399
F0.02554278416347382
sg1
((lp1400
g114
ag9
atp1401
Rp1402
F0.10472541507024266
sg1
((lp1403
S'582206'
p1404
atp1405
Rp1406
F0.12835249042145594
sg1
((lp1407
g17
ag18
ag3
atp1408
Rp1409
F0.2720306513409962
sg1
((lp1410
S'582201'
p1411
atp1412
Rp1413
F0.0491698595146871
sg1
((lp1414
S'530214'
p1415
atp1416
Rp1417
F0.017879948914431672
sg1
((lp1418
g82
ag121
atp1419
Rp1420
F0.03959131545338442
sg1
((lp1421
S'57590'
p1422
atp1423
Rp1424
F0.18326947637292465
sg1
((lp1425
g3
ag78
atp1426
Rp1427
F0.09770114942528736
sg1
((lp1428
g4
ag136
atp1429
Rp1430
F0.005108556832694764
sg1
((lp1431
g114
ag96
atp1432
Rp1433
F0.009578544061302681
sg1
((lp1434
S'55584'
p1435
atp1436
Rp1437
F0.01532567049808429
sg1
((lp1438
g8
ag136
atp1439
Rp1440
F0.008301404853128991
sg1
((lp1441
S'55418'
p1442
atp1443
Rp1444
F0.03639846743295019
sg1
((lp1445
g31
ag27
atp1446
Rp1447
F0.019157088122605363
sg1
((lp1448
g78
ag36
atp1449
Rp1450
F0.15134099616858238
sg1
((lp1451
g60
ag172
atp1452
Rp1453
F0.06066411238825032
sg1
((lp1454
g136
atp1455
Rp1456
F0.2247765006385696
sg1
((lp1457
g114
ag121
atp1458
Rp1459
F0.024265644955300127
sg1
((lp1460
g60
ag9
atp1461
Rp1462
F0.1826309067688378
sg1
((lp1463
S'58127'
p1464
atp1465
Rp1466
F0.11494252873563218
sg1
((lp1467
g136
ag41
atp1468
Rp1469
F0.07279693486590039
sg1
((lp1470
g82
ag78
atp1471
Rp1472
F0.05491698595146871
sg1
((lp1473
g3
ag26
atp1474
Rp1475
F0.2177522349936143
sg1
((lp1476
g3
ag121
atp1477
Rp1478
F0.05044699872286079
sg1
((lp1479
S'55525'
p1480
atp1481
Rp1482
F0.13218390804597702
sg1
((lp1483
S'57056'
p1484
atp1485
Rp1486
F0.017241379310344827
sg1
((lp1487
S'53604'
p1488
atp1489
Rp1490
F0.0140485312899106
sg1
((lp1491
g18
ag35
atp1492
Rp1493
F0.04980842911877394
sg1
((lp1494
S'530138'
p1495
atp1496
Rp1497
F0.06194125159642401
sg1
((lp1498
g52
ag4
atp1499
Rp1500
F0.0070242656449553
sg1
((lp1501
g18
ag41
atp1502
Rp1503
F0.2707535121328225
sg1
((lp1504
g227
ag125
atp1505
Rp1506
F0.017241379310344827
sg1
((lp1507
S'55422'
p1508
atp1509
Rp1510
F0.07407407407407407
sg1
((lp1511
g52
ag96
atp1512
Rp1513
F0.1053639846743295
sg1
((lp1514
S'57001'
p1515
atp1516
Rp1517
F0.0983397190293742
sg1
((lp1518
S'55328'
p1519
atp1520
Rp1521
F0.09770114942528736
sg1
((lp1522
g17
ag60
atp1523
Rp1524
F0.13729246487867178
sg1
((lp1525
g60
ag96
atp1526
Rp1527
F0.1277139208173691
sg1
((lp1528
g8
ag35
ag121
atp1529
Rp1530
F0.2260536398467433
sg1
((lp1531
g18
ag96
atp1532
Rp1533
F0.1277139208173691
sg1
((lp1534
g41
ag27
atp1535
Rp1536
F0.030012771392081736
sg1
((lp1537
S'57133'
p1538
atp1539
Rp1540
F0.05874840357598978
sg1
((lp1541
g60
ag31
atp1542
Rp1543
F0.15197956577266922
sg1
((lp1544
S'582511'
p1545
atp1546
Rp1547
F0.0070242656449553
sg1
((lp1548
S'57703'
p1549
atp1550
Rp1551
F0.02490421455938697
sg1
((lp1552
S'55033'
p1553
atp1554
Rp1555
F0.027458492975734355
sg1
((lp1556
S'55003'
p1557
atp1558
Rp1559
F0.020434227330779056
sg1
((lp1560
g60
ag78
atp1561
Rp1562
F0.13090676883780333
sg1
((lp1563
g8
ag40
ag121
atp1564
Rp1565
F0.23116219667943805
sg1
((lp1566
g17
ag3
ag82
atp1567
Rp1568
F0.19987228607918264
sg1
((lp1569
g9
ag27
atp1570
Rp1571
F0.004469987228607918
sg1
((lp1572
g4
ag36
atp1573
Rp1574
F0.014687100893997445
sg1
((lp1575
S'537010'
p1576
atp1577
Rp1578
F0.03639846743295019
sg1
((lp1579
S'57046'
p1580
atp1581
Rp1582
F0.08684546615581099
sg1
((lp1583
g36
ag125
atp1584
Rp1585
F0.015964240102171137
sg1
((lp1586
g52
ag27
atp1587
Rp1588
F0.016602809706257982
sg1
((lp1589
g17
ag18
ag82
atp1590
Rp1591
F0.1724137931034483
sg1
((lp1592
S'581326'
p1593
atp1594
Rp1595
F0.01979565772669221
sg1
((lp1596
g82
ag172
atp1597
Rp1598
F0.13026819923371646
sg1
((lp1599
g227
ag136
atp1600
Rp1601
F0.020434227330779056
sg1
((lp1602
S'53905'
p1603
atp1604
Rp1605
F0.09770114942528736
sg1
((lp1606
S'55101'
p1607
atp1608
Rp1609
F0.044061302681992334
sg1
((lp1610
g18
ag121
atp1611
Rp1612
F0.042784163473818644
sg1
((lp1613
g64
ag227
atp1614
Rp1615
F0.009578544061302681
sg1
((lp1616
g3
ag36
ag41
atp1617
Rp1618
F0.12132822477650064
sg1
((lp1619
S'530104'
p1620
atp1621
Rp1622
F0.06385696040868455
sg1
((lp1623
g8
ag121
atp1624
Rp1625
F0.24010217113665389
sg1
((lp1626
g8
ag4
ag27
atp1627
Rp1628
F0.19284802043422733
sg1
((lp1629
g8
ag82
atp1630
Rp1631
F0.041507024265644954
sg1
((lp1632
g96
ag27
atp1633
Rp1634
F0.012132822477650063
sg1
((lp1635
g227
ag4
atp1636
Rp1637
F0.017241379310344827
sg1
((lp1638
g35
ag41
atp1639
Rp1640
F0.0491698595146871
sg1
((lp1641
S'530168'
p1642
atp1643
Rp1644
F0.01979565772669221
sg1
((lp1645
S'53723'
p1646
atp1647
Rp1648
F0.07279693486590039
sg1
((lp1649
g8
ag121
ag125
atp1650
Rp1651
F0.1698595146871009
sg1
((lp1652
g64
ag18
atp1653
Rp1654
F0.04086845466155811
sg1
((lp1655
g31
ag36
atp1656
Rp1657
F0.1743295019157088
sg1
((lp1658
S'53501'
p1659
atp1660
Rp1661
F0.034482758620689655
sg1
((lp1662
g64
ag136
ag36
atp1663
Rp1664
F0.1615581098339719
sg1
((lp1665
g78
ag9
atp1666
Rp1667
F0.140485312899106
sg1
((lp1668
g78
ag125
atp1669
Rp1670
F0.06832694763729247
sg1
((lp1671
S'57595'
p1672
atp1673
Rp1674
F0.037037037037037035
sg1
((lp1675
g64
ag4
atp1676
Rp1677
F0.0038314176245210726
sg1
((lp1678
g227
ag35
atp1679
Rp1680
F0.041507024265644954
sg1
((lp1681
S'53725'
p1682
atp1683
Rp1684
F0.032567049808429116
sg1
((lp1685
S'53861'
p1686
atp1687
Rp1688
F0.0280970625798212
sg1
((lp1689
g64
ag41
atp1690
Rp1691
F0.05938697318007663
sg1
((lp1692
g60
ag52
atp1693
Rp1694
F0.07918263090676884
sg1
((lp1695
g31
ag4
atp1696
Rp1697
F0.013409961685823755
sg1
((lp1698
S'530103'
p1699
atp1700
Rp1701
F0.09195402298850575
sg1
((lp1702
S'582733'
p1703
atp1704
Rp1705
F0.022988505747126436
sg1
((lp1706
g40
ag96
atp1707
Rp1708
F0.02681992337164751
sg1
((lp1709
g114
ag52
atp1710
Rp1711
F0.08876117496807152
sg1
((lp1712
g136
ag36
atp1713
Rp1714
F0.21008939974457216
sg1
((lp1715
g121
ag125
atp1716
Rp1717
F0.1724137931034483
sg1
((lp1718
g17
ag18
ag31
atp1719
Rp1720
F0.1558109833971903
sg1
((lp1721
g56
ag121
atp1722
Rp1723
F0.008301404853128991
sg1
((lp1724
S'581358'
p1725
atp1726
Rp1727
F0.02554278416347382
sg1
((lp1728
g125
ag96
atp1729
Rp1730
F0.010217113665389528
sg1
((lp1731
g26
ag78
atp1732
Rp1733
F0.008939974457215836
sg1
((lp1734
g18
ag136
atp1735
Rp1736
F0.05363984674329502
sg1
((lp1737
g8
ag4
ag125
atp1738
Rp1739
F0.17305236270753513
sg1
((lp1740
S'55537'
p1741
atp1742
Rp1743
F0.0970625798212005
sg1
((lp1744
g172
ag27
atp1745
Rp1746
F0.017241379310344827
sg1
((lp1747
g60
ag4
atp1748
Rp1749
F0.012132822477650063
sg1
((lp1750
S'582304'
p1751
atp1752
Rp1753
F0.031289910600255426
sg1
((lp1754
S'582510'
p1755
atp1756
Rp1757
F0.007662835249042145
sg1
((lp1758
g52
atp1759
Rp1760
F0.23116219667943805
sg1
((lp1761
g8
ag41
atp1762
Rp1763
F0.044061302681992334
sg1
((lp1764
g17
ag41
atp1765
Rp1766
F0.322477650063857
sg1
((lp1767
S'581260'
p1768
atp1769
Rp1770
F0.06130268199233716
sg1
((lp1771
g8
ag4
atp1772
Rp1773
F0.25351213282247764
sg1
((lp1774
g40
ag82
atp1775
Rp1776
F0.05044699872286079
sg1
((lp1777
g64
ag78
atp1778
Rp1779
F0.12899106002554278
sg1
((lp1780
g18
ag4
atp1781
Rp1782
F0.02362707535121328
sg1
((lp1783
g8
ag3
atp1784
Rp1785
F0.05236270753512133
sg1
((lp1786
g52
ag36
atp1787
Rp1788
F0.10153256704980843
sg1
((lp1789
g17
ag3
atp1790
Rp1791
F0.37611749680715195
sg1
((lp1792
S'537011'
p1793
atp1794
Rp1795
F0.0140485312899106
sg1
((lp1796
S'55014'
p1797
atp1798
Rp1799
F0.08045977011494253
sg1
((lp1800
g35
ag125
atp1801
Rp1802
F0.17943805874840357
sg1
((lp1803
g4
ag121
atp1804
Rp1805
F0.20945083014048532
sg1
((lp1806
g35
ag40
ag27
atp1807
Rp1808
F0.19476372924648785
sg1
((lp1809
S'582202'
p1810
atp1811
Rp1812
F0.14942528735632185
sg1
((lp1813
S'582630'
p1814
atp1815
Rp1816
F0.020434227330779056
sg1
((lp1817
g172
ag96
atp1818
Rp1819
F0.07982120051085569
sg1
((lp1820
g26
ag9
atp1821
Rp1822
F0.010855683269476373
sg1
((lp1823
g64
ag121
atp1824
Rp1825
F0.005747126436781609
sg1
((lp1826
S'55621'
p1827
atp1828
Rp1829
F0.03639846743295019
sg1
((lp1830
g3
ag31
ag41
atp1831
Rp1832
F0.1724137931034483
sg1
((lp1833
g18
ag3
ag41
atp1834
Rp1835
F0.26309067688378035
sg1
((lp1836
S'582513'
p1837
atp1838
Rp1839
F0.17113665389527458
sg1
((lp1840
g35
ag78
atp1841
Rp1842
F0.08876117496807152
sg1
((lp1843
S'55028'
p1844
atp1845
Rp1846
F0.1583652618135377
sg1
((lp1847
g82
ag27
atp1848
Rp1849
F0.02937420178799489
sg1
((lp1850
S'582514'
p1851
atp1852
Rp1853
F0.1641123882503193
sg1
((lp1854
g17
ag31
ag82
atp1855
Rp1856
F0.11877394636015326
sg1
((lp1857
g227
ag121
atp1858
Rp1859
F0.032567049808429116
sg1
((lp1860
g78
ag27
atp1861
Rp1862
F0.07279693486590039
sg1
((lp1863
g56
ag172
atp1864
Rp1865
F0.0421455938697318
sg1
((lp1866
S'582508'
p1867
atp1868
Rp1869
F0.06066411238825032
sg1
((lp1870
g40
ag121
atp1871
Rp1872
F0.25287356321839083
sg1
((lp1873
S'53697'
p1874
atp1875
Rp1876
F0.015964240102171137
sg1
((lp1877
g78
atp1878
Rp1879
F0.24776500638569604
sg1
((lp1880
S'582417'
p1881
atp1882
Rp1883
F0.02362707535121328
sg1
((lp1884
g31
atp1885
Rp1886
F0.28671775223499363
sg1
((lp1887
g60
ag125
atp1888
Rp1889
F0.013409961685823755
sg1
((lp1890
g18
ag60
atp1891
Rp1892
F0.09259259259259259
sg1
((lp1893
S'530102'
p1894
atp1895
Rp1896
F0.1136653895274585
sg1
((lp1897
g8
ag56
atp1898
Rp1899
F0.008301404853128991
sg1
((lp1900
S'530140'
p1901
atp1902
Rp1903
F0.13665389527458494
sg1
((lp1904
S'53336'
p1905
atp1906
Rp1907
F0.04533844189016603
sg1
((lp1908
g114
ag26
atp1909
Rp1910
F0.08109833971902937
sg1
((lp1911
g96
atp1912
Rp1913
F0.2707535121328225
sg1
((lp1914
S'530284'
p1915
atp1916
Rp1917
F0.06832694763729247
sg1
((lp1918
g52
ag26
atp1919
Rp1920
F0.13154533844189017
sg1
((lp1921
S'582219'
p1922
atp1923
Rp1924
F0.06257982120051085
sg1
((lp1925
g8
ag35
atp1926
Rp1927
F0.26500638569604085
sg1
((lp1928
S'57027'
p1929
atp1930
Rp1931
F0.13409961685823754
sg1
((lp1932
g31
ag40
atp1933
Rp1934
F0.032567049808429116
sg1
((lp1935
g17
ag26
atp1936
Rp1937
F0.2081736909323116
sg1
((lp1938
g60
ag26
atp1939
Rp1940
F0.0561941251596424
sg1
((lp1941
S'57598'
p1942
atp1943
Rp1944
F0.17624521072796934
sg1
((lp1945
g26
ag36
atp1946
Rp1947
F0.06768837803320563
sg1
((lp1948
g36
ag41
atp1949
Rp1950
F0.12835249042145594
sg1
((lp1951
S'530286'
p1952
atp1953
Rp1954
F0.03959131545338442
sg1
((lp1955
g121
ag36
atp1956
Rp1957
F0.022988505747126436
sg1
((lp1958
g121
atp1959
Rp1960
F0.2720306513409962
sg1
((lp1961
S'55522'
p1962
atp1963
Rp1964
F0.10217113665389528
sg1
((lp1965
g56
ag82
atp1966
Rp1967
F0.08109833971902937
sg1
((lp1968
g82
ag125
atp1969
Rp1970
F0.027458492975734355
sg1
((lp1971
g35
ag172
atp1972
Rp1973
F0.03065134099616858
sg1
((lp1974
g26
ag172
atp1975
Rp1976
F0.12260536398467432
sg1
((lp1977
g40
ag9
atp1978
Rp1979
F0.0070242656449553
sg1
((lp1980
g114
ag78
atp1981
Rp1982
F0.10025542784163474
sg1
((lp1983
S'55326'
p1984
atp1985
Rp1986
F0.06257982120051085
sg1
((lp1987
S'55319'
p1988
atp1989
Rp1990
F0.016602809706257982
sg1
((lp1991
g17
ag96
atp1992
Rp1993
F0.18071519795657726
sg1
((lp1994
g41
ag125
atp1995
Rp1996
F0.028735632183908046
sg1
((lp1997
g64
ag56
atp1998
Rp1999
F0.16602809706257982
sg1
((lp2000
S'582665'
p2001
atp2002
Rp2003
F0.0140485312899106
sg1
((lp2004
S'55027'
p2005
atp2006
Rp2007
F0.007662835249042145
sg1
((lp2008
g60
ag136
atp2009
Rp2010
F0.20561941251596424
sg1
((lp2011
g56
ag136
atp2012
Rp2013
F0.17624521072796934
sg1
((lp2014
S'53398'
p2015
atp2016
Rp2017
F0.09195402298850575
s.