(dp0
c__builtin__
frozenset
p1
((lp2
S'57020'
p3
aS'581324'
p4
atp5
Rp6
F0.019157088122605363
sg1
((lp7
S'57049'
p8
aS'57043'
p9
aS'57045'
p10
atp11
Rp12
F0.09578544061302682
sg1
((lp13
S'581305'
p14
aS'55310'
p15
atp16
Rp17
F0.004469987228607918
sg1
((lp18
S'55015'
p19
aS'55315'
p20
aS'55314'
p21
aS'55521'
p22
atp23
Rp24
F0.21966794380587484
sg1
((lp25
S'53001'
p26
ag10
atp27
Rp28
F0.021711366538952746
sg1
((lp29
g9
aS'55026'
p30
atp31
Rp32
F0.027458492975734355
sg1
((lp33
g19
ag4
atp34
Rp35
F0.004469987228607918
sg1
((lp36
S'55277'
p37
atp38
Rp39
F0.027458492975734355
sg1
((lp40
S'57016'
p41
aS'57017'
p42
atp43
Rp44
F0.29565772669220947
sg1
((lp45
S'57014'
p46
ag3
atp47
Rp48
F0.12899106002554278
sg1
((lp49
g42
aS'57274'
p50
aS'57594'
p51
atp52
Rp53
F0.09770114942528736
sg1
((lp54
S'582215'
p55
atp56
Rp57
F0.0983397190293742
sg1
((lp58
g51
ag15
atp59
Rp60
F0.007662835249042145
sg1
((lp61
g42
ag46
aS'57047'
p62
atp63
Rp64
F0.17113665389527458
sg1
((lp65
S'582514'
p66
aS'57590'
p67
atp68
Rp69
F0.0006385696040868455
sg1
((lp70
g41
ag9
ag50
atp71
Rp72
F0.1839080459770115
sg1
((lp73
g20
aS'581325'
p74
atp75
Rp76
F0.02554278416347382
sg1
((lp77
g9
ag10
ag62
atp78
Rp79
F0.1966794380587484
sg1
((lp80
g21
ag62
atp81
Rp82
F0.05555555555555555
sg1
((lp83
S'58160'
p84
ag10
atp85
Rp86
F0.06768837803320563
sg1
((lp87
g9
aS'57044'
p88
ag67
atp89
Rp90
F0.10217113665389528
sg1
((lp91
S'582102'
p92
aS'57015'
p93
atp94
Rp95
F0.024265644955300127
sg1
((lp96
S'582103'
p97
ag9
ag88
atp98
Rp99
F0.05555555555555555
sg1
((lp100
g50
ag51
atp101
Rp102
F0.10664112388250319
sg1
((lp103
S'582315'
p104
atp105
Rp106
F0.028735632183908046
sg1
((lp107
g41
ag42
ag9
ag88
atp108
Rp109
F0.16091954022988506
sg1
((lp110
g92
ag30
atp111
Rp112
F0.0038314176245210726
sg1
((lp113
g92
aS'58131'
p114
atp115
Rp116
F0.14367816091954022
sg1
((lp117
g3
aS'57033'
p118
atp119
Rp120
F0.06385696040868455
sg1
((lp121
g46
ag21
atp122
Rp123
F0.02937420178799489
sg1
((lp124
g114
ag22
atp125
Rp126
F0.006385696040868455
sg1
((lp127
g21
aS'581328'
p128
atp129
Rp130
F0.008939974457215836
sg1
((lp131
g22
ag67
atp132
Rp133
F0.02362707535121328
sg1
((lp134
g41
ag51
ag62
aS'57598'
p135
atp136
Rp137
F0.13026819923371646
sg1
((lp138
g26
ag3
atp139
Rp140
F0.016602809706257982
sg1
((lp141
g41
ag62
ag135
atp142
Rp143
F0.16475095785440613
sg1
((lp144
g97
ag21
atp145
Rp146
F0.01979565772669221
sg1
((lp147
g26
ag15
atp148
Rp149
F0.005747126436781609
sg1
((lp150
g19
ag20
ag21
aS'55311'
p151
atp152
Rp153
F0.17177522349936142
sg1
((lp154
g9
ag21
atp155
Rp156
F0.06832694763729247
sg1
((lp157
g8
ag93
atp158
Rp159
F0.06130268199233716
sg1
((lp160
S'55508'
p161
atp162
Rp163
F0.12005108556832694
sg1
((lp164
g26
ag22
atp165
Rp166
F0.018518518518518517
sg1
((lp167
g92
ag15
atp168
Rp169
F0.005108556832694764
sg1
((lp170
g42
aS'57039'
p171
atp172
Rp173
F0.033205619412515965
sg1
((lp174
g9
ag10
ag50
atp175
Rp176
F0.12132822477650064
sg1
((lp177
g42
ag3
ag51
atp178
Rp179
F0.11494252873563218
sg1
((lp180
g46
ag50
atp181
Rp182
F0.14303959131545338
sg1
((lp183
g19
ag171
atp184
Rp185
F0.09259259259259259
sg1
((lp186
S'57241'
p187
atp188
Rp189
F0.015964240102171137
sg1
((lp190
g20
ag118
atp191
Rp192
F0.0210727969348659
sg1
((lp193
g3
ag128
atp194
Rp195
F0.044061302681992334
sg1
((lp196
g42
ag51
ag62
atp197
Rp198
F0.1698595146871009
sg1
((lp199
g21
aS'582513'
p200
atp201
Rp202
F0.005108556832694764
sg1
((lp203
S'582631'
p204
atp205
Rp206
F0.02681992337164751
sg1
((lp207
S'57591'
p208
atp209
Rp210
F0.06896551724137931
sg1
((lp211
g151
ag67
atp212
Rp213
F0.013409961685823755
sg1
((lp214
g9
ag88
ag74
atp215
Rp216
F0.06641123882503193
sg1
((lp217
g26
ag135
atp218
Rp219
F0.008939974457215836
sg1
((lp220
g9
ag51
ag62
atp221
Rp222
F0.19987228607918264
sg1
((lp223
g93
ag22
atp224
Rp225
F0.012132822477650063
sg1
((lp226
g171
ag4
atp227
Rp228
F0.140485312899106
sg1
((lp229
g41
ag42
ag9
ag88
ag62
atp230
Rp231
F0.15517241379310345
sg1
((lp232
g26
ag171
atp233
Rp234
F0.010217113665389528
sg1
((lp235
g9
ag51
ag10
atp236
Rp237
F0.12643678160919541
sg1
((lp238
g50
ag62
ag135
atp239
Rp240
F0.0970625798212005
sg1
((lp241
g19
ag30
ag21
atp242
Rp243
F0.24521072796934865
sg1
((lp244
g14
ag4
atp245
Rp246
F0.1360153256704981
sg1
((lp247
g41
ag8
atp248
Rp249
F0.13729246487867178
sg1
((lp250
g41
ag114
atp251
Rp252
F0.0913154533844189
sg1
((lp253
g92
ag97
ag4
atp254
Rp255
F0.16091954022988506
sg1
((lp256
g41
ag51
ag10
atp257
Rp258
F0.1206896551724138
sg1
((lp259
g19
ag30
ag22
ag21
atp260
Rp261
F0.20051085568326948
sg1
((lp262
g21
ag22
ag15
atp263
Rp264
F0.1826309067688378
sg1
((lp265
g19
ag20
ag151
atp266
Rp267
F0.1768837803320562
sg1
((lp268
S'535026'
p269
atp270
Rp271
F0.038952745849297574
sg1
((lp272
g51
ag128
atp273
Rp274
F0.03384418901660281
sg1
((lp275
g97
ag151
atp276
Rp277
F0.013409961685823755
sg1
((lp278
g20
aS'582104'
p279
atp280
Rp281
F0.0070242656449553
sg1
((lp282
g26
ag97
atp283
Rp284
F0.04661558109833972
sg1
((lp285
g97
ag84
atp286
Rp287
F0.15197956577266922
sg1
((lp288
g8
ag9
ag74
atp289
Rp290
F0.08556832694763729
sg1
((lp291
g8
atp292
Rp293
F0.21264367816091953
sg1
((lp294
g114
atp295
Rp296
F0.18773946360153257
sg1
((lp297
g9
ag50
ag88
atp298
Rp299
F0.1040868454661558
sg1
((lp300
g21
ag15
atp301
Rp302
F0.21711366538952745
sg1
((lp303
g9
ag3
ag62
atp304
Rp305
F0.16475095785440613
sg1
((lp306
g14
ag279
atp307
Rp308
F0.1360153256704981
sg1
((lp309
g9
ag50
atp310
Rp311
F0.23180076628352492
sg1
((lp312
g66
ag50
atp313
Rp314
F0.09642401021711366
sg1
((lp315
g46
ag10
atp316
Rp317
F0.13537675606641125
sg1
((lp318
g41
ag9
ag118
atp319
Rp320
F0.16602809706257982
sg1
((lp321
g19
ag21
ag151
atp322
Rp323
F0.19476372924648785
sg1
((lp324
g20
ag84
atp325
Rp326
F0.005108556832694764
sg1
((lp327
g41
ag50
ag62
ag135
atp328
Rp329
F0.09514687100893997
sg1
((lp330
g22
ag171
atp331
Rp332
F0.08301404853128991
sg1
((lp333
S'57048'
p334
atp335
Rp336
F0.11621966794380588
sg1
((lp337
g97
ag118
atp338
Rp339
F0.1277139208173691
sg1
((lp340
g46
ag62
atp341
Rp342
F0.20051085568326948
sg1
((lp343
g30
ag88
atp344
Rp345
F0.008301404853128991
sg1
((lp346
g41
ag9
ag10
ag135
atp347
Rp348
F0.10983397190293742
sg1
((lp349
S'57102'
p350
atp351
Rp352
F0.0210727969348659
sg1
((lp353
g9
aS'53705'
p354
atp355
Rp356
F0.05363984674329502
sg1
((lp357
g354
ag4
atp358
Rp359
F0.004469987228607918
sg1
((lp360
g46
ag84
atp361
Rp362
F0.05236270753512133
sg1
((lp363
g41
ag9
ag10
ag50
atp364
Rp365
F0.10855683269476372
sg1
((lp366
S'57079'
p367
atp368
Rp369
F0.04469987228607918
sg1
((lp370
g51
ag62
ag67
atp371
Rp372
F0.12132822477650064
sg1
((lp373
g8
ag20
atp374
Rp375
F0.024265644955300127
sg1
((lp376
g41
ag9
ag93
ag62
atp377
Rp378
F0.1602809706257982
sg1
((lp379
g151
ag15
atp380
Rp381
F0.17943805874840357
sg1
((lp382
g42
ag15
atp383
Rp384
F0.03639846743295019
sg1
((lp385
S'55527'
p386
atp387
Rp388
F0.05491698595146871
sg1
((lp389
g42
ag30
atp390
Rp391
F0.02362707535121328
sg1
((lp392
g41
ag42
ag51
ag62
atp393
Rp394
F0.1615581098339719
sg1
((lp395
g19
ag46
atp396
Rp397
F0.02681992337164751
sg1
((lp398
S'58161'
p399
atp400
Rp401
F0.10855683269476372
sg1
((lp402
g50
ag171
atp403
Rp404
F0.09514687100893997
sg1
((lp405
S'530281'
p406
atp407
Rp408
F0.14559386973180077
sg1
((lp409
g92
ag200
ag74
atp410
Rp411
F0.1583652618135377
sg1
((lp412
S'582365'
p413
atp414
Rp415
F0.03065134099616858
sg1
((lp416
g74
ag4
atp417
Rp418
F0.21455938697318008
sg1
((lp419
g51
ag22
atp420
Rp421
F0.017241379310344827
sg1
((lp422
g92
ag66
ag4
atp423
Rp424
F0.1475095785440613
sg1
((lp425
g22
ag200
atp426
Rp427
F0.004469987228607918
sg1
((lp428
g9
ag135
ag67
atp429
Rp430
F0.11558109833971902
sg1
((lp431
g93
ag128
atp432
Rp433
F0.037675606641123884
sg1
((lp434
g41
ag66
atp435
Rp436
F0.04661558109833972
sg1
((lp437
g354
ag135
atp438
Rp439
F0.0140485312899106
sg1
((lp440
g26
ag88
atp441
Rp442
F0.033205619412515965
sg1
((lp443
S'53704'
p444
ag88
atp445
Rp446
F0.04661558109833972
sg1
((lp447
g41
ag88
ag67
atp448
Rp449
F0.09961685823754789
sg1
((lp450
g41
ag42
ag62
atp451
Rp452
F0.25734355044699875
sg1
((lp453
g128
ag14
atp454
Rp455
F0.14687100893997446
sg1
((lp456
g42
ag51
ag10
atp457
Rp458
F0.10983397190293742
sg1
((lp459
S'582203'
p460
atp461
Rp462
F0.11685823754789272
sg1
((lp463
g97
ag200
atp464
Rp465
F0.1583652618135377
sg1
((lp466
S'582498'
p467
atp468
Rp469
F0.022988505747126436
sg1
((lp470
g93
ag74
atp471
Rp472
F0.07662835249042145
sg1
((lp473
g41
ag200
atp474
Rp475
F0.05747126436781609
sg1
((lp476
g354
ag118
atp477
Rp478
F0.02362707535121328
sg1
((lp479
g97
ag14
atp480
Rp481
F0.14623243933588762
sg1
((lp482
g444
ag4
atp483
Rp484
F0.006385696040868455
sg1
((lp485
g26
ag4
atp486
Rp487
F0.004469987228607918
sg1
((lp488
g66
ag171
atp489
Rp490
F0.1111111111111111
sg1
((lp491
g30
ag128
atp492
Rp493
F0.005108556832694764
sg1
((lp494
g8
ag92
atp495
Rp496
F0.1040868454661558
sg1
((lp497
g92
ag67
atp498
Rp499
F0.024265644955300127
sg1
((lp500
g42
ag14
atp501
Rp502
F0.044061302681992334
sg1
((lp503
g20
atp504
Rp505
F0.3052362707535121
sg1
((lp506
g42
ag50
ag88
atp507
Rp508
F0.09897828863346105
sg1
((lp509
g93
ag62
atp510
Rp511
F0.1673052362707535
sg1
((lp512
g171
ag200
atp513
Rp514
F0.11174968071519796
sg1
((lp515
g92
ag128
ag74
ag4
atp516
Rp517
F0.15261813537675606
sg1
((lp518
g66
ag20
atp519
Rp520
F0.0006385696040868455
sg1
((lp521
g41
ag51
ag135
atp522
Rp523
F0.13537675606641125
sg1
((lp524
g42
ag50
atp525
Rp526
F0.16283524904214558
sg1
((lp527
S'530136'
p528
atp529
Rp530
F0.10344827586206896
sg1
((lp531
g279
ag15
atp532
Rp533
F0.006385696040868455
sg1
((lp534
g30
ag171
atp535
Rp536
F0.08620689655172414
sg1
((lp537
g41
ag42
ag51
atp538
Rp539
F0.1698595146871009
sg1
((lp540
S'530283'
p541
atp542
Rp543
F0.09961685823754789
sg1
((lp544
g9
ag74
ag135
atp545
Rp546
F0.06130268199233716
sg1
((lp547
g84
ag67
atp548
Rp549
F0.031928480204342274
sg1
((lp550
S'53602'
p551
atp552
Rp553
F0.018518518518518517
sg1
((lp554
g354
ag128
atp555
Rp556
F0.017241379310344827
sg1
((lp557
g92
ag84
ag74
atp558
Rp559
F0.13409961685823754
sg1
((lp560
g41
ag171
atp561
Rp562
F0.07343550446998723
sg1
((lp563
g30
ag22
ag151
atp564
Rp565
F0.14623243933588762
sg1
((lp566
S'530144'
p567
atp568
Rp569
F0.002554278416347382
sg1
((lp570
g279
ag151
atp571
Rp572
F0.006385696040868455
sg1
((lp573
S'55285'
p574
atp575
Rp576
F0.015964240102171137
sg1
((lp577
g9
ag128
atp578
Rp579
F0.13473818646232438
sg1
((lp580
g354
ag10
atp581
Rp582
F0.033205619412515965
sg1
((lp583
g92
ag354
atp584
Rp585
F0.0070242656449553
sg1
((lp586
g444
ag118
atp587
Rp588
F0.030012771392081736
sg1
((lp589
g97
ag74
ag4
atp590
Rp591
F0.18199233716475097
sg1
((lp592
g8
ag114
atp593
Rp594
F0.09642401021711366
sg1
((lp595
g93
ag51
atp596
Rp597
F0.11749680715197956
sg1
((lp598
g128
ag74
atp599
Rp600
F0.2037037037037037
sg1
((lp601
g171
ag62
atp602
Rp603
F0.0491698595146871
sg1
((lp604
g10
ag118
atp605
Rp606
F0.08939974457215837
sg1
((lp607
g92
atp608
Rp609
F0.21455938697318008
sg1
((lp610
g444
ag135
atp611
Rp612
F0.019157088122605363
sg1
((lp613
g88
ag279
atp614
Rp615
F0.038314176245210725
sg1
((lp616
g10
ag74
atp617
Rp618
F0.10919540229885058
sg1
((lp619
g30
ag93
atp620
Rp621
F0.002554278416347382
sg1
((lp622
g30
ag200
atp623
Rp624
F0.0038314176245210726
sg1
((lp625
g444
ag171
atp626
Rp627
F0.014687100893997445
sg1
((lp628
g21
ag84
atp629
Rp630
F0.006385696040868455
sg1
((lp631
g21
ag279
atp632
Rp633
F0.008939974457215836
sg1
((lp634
g97
ag9
ag62
atp635
Rp636
F0.10025542784163474
sg1
((lp637
g26
ag66
atp638
Rp639
F0.001277139208173691
sg1
((lp640
g41
ag9
ag62
atp641
Rp642
F0.31417624521072796
sg1
((lp643
g114
ag151
atp644
Rp645
F0.0031928480204342275
sg1
((lp646
g20
ag15
atp647
Rp648
F0.20242656449553
sg1
((lp649
g19
ag93
atp650
Rp651
F0.014687100893997445
sg1
((lp652
g41
ag3
ag88
atp653
Rp654
F0.11621966794380588
sg1
((lp655
g97
ag128
ag74
ag4
atp656
Rp657
F0.15070242656449553
sg1
((lp658
g41
ag9
ag93
atp659
Rp660
F0.16475095785440613
sg1
((lp661
g114
ag128
ag97
atp662
Rp663
F0.14367816091954022
sg1
((lp664
g20
ag22
ag15
atp665
Rp666
F0.18071519795657726
sg1
((lp667
g51
atp668
Rp669
F0.22286079182630908
sg1
((lp670
g444
ag67
atp671
Rp672
F0.019157088122605363
sg1
((lp673
g22
ag62
atp674
Rp675
F0.04086845466155811
sg1
((lp676
g50
ag51
ag62
atp677
Rp678
F0.10153256704980843
sg1
((lp679
S'57058'
p680
atp681
Rp682
F0.021711366538952746
sg1
((lp683
g14
ag62
atp684
Rp685
F0.05938697318007663
sg1
((lp686
g41
ag135
ag118
atp687
Rp688
F0.07918263090676884
sg1
((lp689
g88
ag200
atp690
Rp691
F0.012132822477650063
sg1
((lp692
S'582519'
p693
atp694
Rp695
F0.010855683269476373
sg1
((lp696
g26
ag46
atp697
Rp698
F0.01979565772669221
sg1
((lp699
g84
ag151
atp700
Rp701
F0.004469987228607918
sg1
((lp702
S'57705'
p703
atp704
Rp705
F0.04469987228607918
sg1
((lp706
g41
ag50
ag135
atp707
Rp708
F0.09897828863346105
sg1
((lp709
g41
ag50
ag88
atp710
Rp711
F0.10344827586206896
sg1
((lp712
g92
ag279
ag4
atp713
Rp714
F0.15070242656449553
sg1
((lp715
g114
ag118
atp716
Rp717
F0.07215836526181353
sg1
((lp718
g41
ag10
ag88
atp719
Rp720
F0.12196679438058748
sg1
((lp721
g354
ag151
atp722
Rp723
F0.01277139208173691
sg1
((lp724
g41
ag10
ag62
atp725
Rp726
F0.1883780332056194
sg1
((lp727
S'581251'
p728
atp729
Rp730
F0.038952745849297574
sg1
((lp731
g41
ag50
ag118
atp732
Rp733
F0.08109833971902937
sg1
((lp734
g19
ag30
ag22
ag151
atp735
Rp736
F0.14559386973180077
sg1
((lp737
g9
ag10
ag74
atp738
Rp739
F0.08876117496807152
sg1
((lp740
g41
ag50
ag67
atp741
Rp742
F0.08748403575989783
sg1
((lp743
g20
ag51
atp744
Rp745
F0.020434227330779056
sg1
((lp746
g41
ag42
ag9
ag51
atp747
Rp748
F0.1698595146871009
sg1
((lp749
S'57064'
p750
atp751
Rp752
F0.011494252873563218
sg1
((lp753
g42
ag50
ag62
atp754
Rp755
F0.14623243933588762
sg1
((lp756
g92
ag279
atp757
Rp758
F0.16475095785440613
sg1
((lp759
g92
ag200
ag279
atp760
Rp761
F0.14112388250319285
sg1
((lp762
S'530094'
p763
atp764
Rp765
F0.14240102171136654
sg1
((lp766
g41
ag3
ag135
atp767
Rp768
F0.1136653895274585
sg1
((lp769
g19
ag151
atp770
Rp771
F0.20434227330779056
sg1
((lp772
g14
ag67
atp773
Rp774
F0.028735632183908046
sg1
((lp775
g19
ag21
ag22
ag15
atp776
Rp777
F0.18071519795657726
sg1
((lp778
g41
ag151
atp779
Rp780
F0.044061302681992334
sg1
((lp781
g41
ag4
atp782
Rp783
F0.07215836526181353
sg1
((lp784
g8
ag9
ag62
atp785
Rp786
F0.12260536398467432
sg1
((lp787
S'582659'
p788
atp789
Rp790
F0.010217113665389528
sg1
((lp791
g26
ag21
atp792
Rp793
F0.031289910600255426
sg1
((lp794
g26
ag279
atp795
Rp796
F0.014687100893997445
sg1
((lp797
g20
ag128
atp798
Rp799
F0.0070242656449553
sg1
((lp800
S'55034'
p801
atp802
Rp803
F0.070242656449553
sg1
((lp804
g92
ag128
ag4
atp805
Rp806
F0.1532567049808429
sg1
((lp807
g50
ag118
atp808
Rp809
F0.11558109833971902
sg1
((lp810
g114
ag30
atp811
Rp812
F0.0038314176245210726
sg1
((lp813
g97
ag20
atp814
Rp815
F0.018518518518518517
sg1
((lp816
g9
ag200
atp817
Rp818
F0.09323116219667944
sg1
((lp819
g128
ag279
ag74
ag4
atp820
Rp821
F0.13984674329501914
sg1
((lp822
g41
ag3
ag62
atp823
Rp824
F0.16091954022988506
sg1
((lp825
g84
ag128
ag74
atp826
Rp827
F0.14559386973180077
sg1
((lp828
g20
ag14
atp829
Rp830
F0.006385696040868455
sg1
((lp831
g200
ag67
atp832
Rp833
F0.011494252873563218
sg1
((lp834
g42
ag9
ag88
atp835
Rp836
F0.16794380587484037
sg1
((lp837
g20
ag46
atp838
Rp839
F0.02490421455938697
sg1
((lp840
g50
ag135
atp841
Rp842
F0.10153256704980843
sg1
((lp843
g97
ag84
ag74
atp844
Rp845
F0.14814814814814814
sg1
((lp846
g42
ag9
atp847
Rp848
F0.28735632183908044
sg1
((lp849
S'582216'
p850
atp851
Rp852
F0.09514687100893997
sg1
((lp853
g93
atp854
Rp855
F0.1781609195402299
sg1
((lp856
S'55324'
p857
atp858
Rp859
F0.13665389527458494
sg1
((lp860
g41
ag9
ag3
atp861
Rp862
F0.1641123882503193
sg1
((lp863
g128
ag74
ag4
atp864
Rp865
F0.1698595146871009
sg1
((lp866
g46
ag30
atp867
Rp868
F0.0070242656449553
sg1
((lp869
g92
ag51
atp870
Rp871
F0.020434227330779056
sg1
((lp872
g84
ag62
atp873
Rp874
F0.06257982120051085
sg1
((lp875
g20
ag21
ag151
atp876
Rp877
F0.17369093231162197
sg1
((lp878
g30
ag135
atp879
Rp880
F0.0
sg1
((lp881
S'55402'
p882
atp883
Rp884
F0.12260536398467432
sg1
((lp885
g21
ag74
atp886
Rp887
F0.028735632183908046
sg1
((lp888
g26
ag200
atp889
Rp890
F0.0019157088122605363
sg1
((lp891
g20
ag3
atp892
Rp893
F0.02234993614303959
sg1
((lp894
g66
ag118
atp895
Rp896
F0.07471264367816093
sg1
((lp897
g26
ag51
atp898
Rp899
F0.0070242656449553
sg1
((lp900
g92
ag4
atp901
Rp902
F0.19157088122605365
sg1
((lp903
g92
ag74
atp904
Rp905
F0.20561941251596424
sg1
((lp906
S'530137'
p907
atp908
Rp909
F0.07215836526181353
sg1
((lp910
g42
ag50
ag10
atp911
Rp912
F0.10217113665389528
sg1
((lp913
g97
ag128
atp914
Rp915
F0.18901660280970625
sg1
((lp916
g114
ag10
atp917
Rp918
F0.07215836526181353
sg1
((lp919
g66
ag135
atp920
Rp921
F0.0006385696040868455
sg1
((lp922
g92
ag3
atp923
Rp924
F0.031289910600255426
sg1
((lp925
g41
ag9
ag51
ag62
ag135
atp926
Rp927
F0.13026819923371646
sg1
((lp928
g19
ag22
ag15
atp929
Rp930
F0.18901660280970625
sg1
((lp931
g42
ag9
ag51
atp932
Rp933
F0.17879948914431673
sg1
((lp934
g46
ag171
atp935
Rp936
F0.03065134099616858
sg1
((lp937
g26
ag151
atp938
Rp939
F0.0038314176245210726
sg1
((lp940
g30
ag67
atp941
Rp942
F0.004469987228607918
sg1
((lp943
g42
ag51
ag88
atp944
Rp945
F0.1123882503192848
sg1
((lp946
S'530000'
p947
atp948
Rp949
F0.11302681992337164
sg1
((lp950
g114
ag66
atp951
Rp952
F0.11430395913154534
sg1
((lp953
g41
ag51
ag118
atp954
Rp955
F0.0970625798212005
sg1
((lp956
g26
ag118
atp957
Rp958
F0.0210727969348659
sg1
((lp959
g19
ag20
ag30
atp960
Rp961
F0.2247765006385696
sg1
((lp962
g92
ag128
ag279
ag74
atp963
Rp964
F0.13154533844189017
sg1
((lp965
g41
ag10
ag67
atp966
Rp967
F0.10983397190293742
sg1
((lp968
g22
ag151
ag15
atp969
Rp970
F0.14878671775223498
sg1
((lp971
g19
ag21
ag151
ag15
atp972
Rp973
F0.16794380587484037
sg1
((lp974
S'530177'
p975
atp976
Rp977
F0.02362707535121328
sg1
((lp978
g114
ag46
atp979
Rp980
F0.05747126436781609
sg1
((lp981
g9
ag51
ag74
atp982
Rp983
F0.06704980842911877
sg1
((lp984
S'57067'
p985
atp986
Rp987
F0.022988505747126436
sg1
((lp988
g19
ag20
ag30
ag22
ag15
atp989
Rp990
F0.1545338441890166
sg1
((lp991
g41
ag128
atp992
Rp993
F0.10153256704980843
sg1
((lp994
g444
atp995
Rp996
F0.227330779054917
sg1
((lp997
g135
ag67
atp998
Rp999
F0.11558109833971902
sg1
((lp1000
g114
ag97
atp1001
Rp1002
F0.16091954022988506
sg1
((lp1003
g9
ag62
ag67
atp1004
Rp1005
F0.15964240102171137
sg1
((lp1006
g21
ag30
ag22
atp1007
Rp1008
F0.2037037037037037
sg1
((lp1009
g41
ag42
ag46
ag9
ag62
atp1010
Rp1011
F0.16219667943805874
sg1
((lp1012
g21
ag88
atp1013
Rp1014
F0.034482758620689655
sg1
((lp1015
S'53399'
p1016
atp1017
Rp1018
F0.035759897828863345
sg1
((lp1019
g51
ag151
atp1020
Rp1021
F0.008939974457215836
sg1
((lp1022
g97
ag128
ag74
atp1023
Rp1024
F0.18071519795657726
sg1
((lp1025
g50
ag14
atp1026
Rp1027
F0.11494252873563218
sg1
((lp1028
g41
ag10
atp1029
Rp1030
F0.2164750957854406
sg1
((lp1031
g97
ag9
ag135
atp1032
Rp1033
F0.05108556832694764
sg1
((lp1034
g46
ag9
atp1035
Rp1036
F0.21136653895274585
sg1
((lp1037
g21
ag30
atp1038
Rp1039
F0.25287356321839083
sg1
((lp1040
g42
ag50
ag3
atp1041
Rp1042
F0.1040868454661558
sg1
((lp1043
g444
ag74
atp1044
Rp1045
F0.07343550446998723
sg1
((lp1046
g20
ag354
atp1047
Rp1048
F0.032567049808429116
sg1
((lp1049
g200
ag279
atp1050
Rp1051
F0.14878671775223498
sg1
((lp1052
g93
ag279
atp1053
Rp1054
F0.03959131545338442
sg1
((lp1055
g42
ag21
atp1056
Rp1057
F0.05683269476372925
sg1
((lp1058
S'530171'
p1059
atp1060
Rp1061
F0.0019157088122605363
sg1
((lp1062
g128
ag118
atp1063
Rp1064
F0.0842911877394636
sg1
((lp1065
S'582482'
p1066
atp1067
Rp1068
F0.027458492975734355
sg1
((lp1069
S'55395'
p1070
atp1071
Rp1072
F0.04533844189016603
sg1
((lp1073
g41
ag9
ag67
atp1074
Rp1075
F0.16666666666666666
sg1
((lp1076
g444
ag9
atp1077
Rp1078
F0.06577266922094509
sg1
((lp1079
g19
ag21
atp1080
Rp1081
F0.2905491698595147
sg1
((lp1082
g9
ag62
atp1083
Rp1084
F0.342911877394636
sg1
((lp1085
g9
ag10
ag88
atp1086
Rp1087
F0.12579821200510855
sg1
((lp1088
g41
atp1089
Rp1090
F0.4335887611749681
sg1
((lp1091
g128
ag200
ag74
atp1092
Rp1093
F0.13473818646232438
sg1
((lp1094
g97
ag128
ag279
atp1095
Rp1096
F0.16602809706257982
sg1
((lp1097
g46
ag354
atp1098
Rp1099
F0.026181353767560665
sg1
((lp1100
g9
ag88
atp1101
Rp1102
F0.18646232439335889
sg1
((lp1103
g19
ag20
ag21
ag22
ag15
atp1104
Rp1105
F0.17177522349936142
sg1
((lp1106
S'55004'
p1107
atp1108
Rp1109
F0.026181353767560665
sg1
((lp1110
g51
ag118
atp1111
Rp1112
F0.10217113665389528
sg1
((lp1113
S'582351'
p1114
atp1115
Rp1116
F0.0351213282247765
sg1
((lp1117
g30
atp1118
Rp1119
F0.2611749680715198
sg1
((lp1120
g19
ag30
ag151
atp1121
Rp1122
F0.17305236270753513
sg1
((lp1123
g9
ag50
ag67
atp1124
Rp1125
F0.09067688378033206
sg1
((lp1126
g41
ag46
ag9
ag62
atp1127
Rp1128
F0.1839080459770115
sg1
((lp1129
g41
ag51
ag62
atp1130
Rp1131
F0.19029374201787994
sg1
((lp1132
g42
ag3
atp1133
Rp1134
F0.16794380587484037
sg1
((lp1135
g3
ag22
atp1136
Rp1137
F0.018518518518518517
sg1
((lp1138
S'554182'
p1139
atp1140
Rp1141
F0.02554278416347382
sg1
((lp1142
g354
ag84
atp1143
Rp1144
F0.012132822477650063
sg1
((lp1145
g171
ag279
atp1146
Rp1147
F0.11877394636015326
sg1
((lp1148
g114
ag14
atp1149
Rp1150
F0.13729246487867178
sg1
((lp1151
g42
ag74
atp1152
Rp1153
F0.1111111111111111
sg1
((lp1154
g41
ag42
ag50
atp1155
Rp1156
F0.1558109833971903
sg1
((lp1157
g3
ag15
atp1158
Rp1159
F0.012132822477650063
sg1
((lp1160
g97
ag9
ag51
atp1161
Rp1162
F0.05555555555555555
sg1
((lp1163
g21
ag20
ag30
atp1164
Rp1165
F0.2260536398467433
sg1
((lp1166
g10
ag279
atp1167
Rp1168
F0.07598978288633461
sg1
((lp1169
g26
ag354
atp1170
Rp1171
F0.16475095785440613
sg1
((lp1172
g46
ag14
atp1173
Rp1174
F0.05300127713920817
sg1
((lp1175
g66
ag14
atp1176
Rp1177
F0.1053639846743295
sg1
((lp1178
S'582462'
p1179
atp1180
Rp1181
F0.013409961685823755
sg1
((lp1182
g200
ag151
atp1183
Rp1184
F0.0031928480204342275
sg1
((lp1185
g114
ag128
atp1186
Rp1187
F0.16219667943805874
sg1
((lp1188
S'55483'
p1189
atp1190
Rp1191
F0.018518518518518517
sg1
((lp1192
S'53912'
p1193
atp1194
Rp1195
F0.01277139208173691
sg1
((lp1196
g26
ag84
atp1197
Rp1198
F0.008301404853128991
sg1
((lp1199
g92
ag97
ag128
atp1200
Rp1201
F0.1475095785440613
sg1
((lp1202
g41
ag42
ag46
ag9
atp1203
Rp1204
F0.1685823754789272
sg1
((lp1205
g114
ag84
atp1206
Rp1207
F0.13856960408684546
sg1
((lp1208
g42
ag444
atp1209
Rp1210
F0.06385696040868455
sg1
((lp1211
S'582204'
p1212
atp1213
Rp1214
F0.05363984674329502
sg1
((lp1215
g42
ag135
atp1216
Rp1217
F0.1583652618135377
sg1
((lp1218
g41
ag9
ag10
ag62
atp1219
Rp1220
F0.18518518518518517
sg1
((lp1221
g41
ag42
ag88
ag62
atp1222
Rp1223
F0.1558109833971903
sg1
((lp1224
g9
ag51
ag88
atp1225
Rp1226
F0.12260536398467432
sg1
((lp1227
S'57137'
p1228
atp1229
Rp1230
F0.02681992337164751
sg1
((lp1231
g200
ag74
atp1232
Rp1233
F0.1673052362707535
sg1
((lp1234
g4
ag118
atp1235
Rp1236
F0.09003831417624521
sg1
((lp1237
g21
ag151
atp1238
Rp1239
F0.1966794380587484
sg1
((lp1240
g114
ag354
atp1241
Rp1242
F0.013409961685823755
sg1
((lp1243
g114
ag135
atp1244
Rp1245
F0.026181353767560665
sg1
((lp1246
g66
ag74
ag4
atp1247
Rp1248
F0.1602809706257982
sg1
((lp1249
g97
ag200
ag74
atp1250
Rp1251
F0.15708812260536398
sg1
((lp1252
g50
ag151
atp1253
Rp1254
F0.019157088122605363
sg1
((lp1255
g444
ag51
atp1256
Rp1257
F0.017879948914431672
sg1
((lp1258
g92
ag118
atp1259
Rp1260
F0.08620689655172414
sg1
((lp1261
g19
ag20
ag151
ag15
atp1262
Rp1263
F0.15197956577266922
sg1
((lp1264
g41
ag92
atp1265
Rp1266
F0.08045977011494253
sg1
((lp1267
g42
ag46
ag9
atp1268
Rp1269
F0.17496807151979565
sg1
((lp1270
g51
ag10
atp1271
Rp1272
F0.12643678160919541
sg1
((lp1273
g30
ag62
atp1274
Rp1275
F0.019157088122605363
sg1
((lp1276
g30
ag118
atp1277
Rp1278
F0.010217113665389528
sg1
((lp1279
g20
ag30
ag15
atp1280
Rp1281
F0.17305236270753513
sg1
((lp1282
S'57596'
p1283
atp1284
Rp1285
F0.13793103448275862
sg1
((lp1286
g20
ag10
atp1287
Rp1288
F0.04597701149425287
sg1
((lp1289
g8
ag62
atp1290
Rp1291
F0.1251596424010217
sg1
((lp1292
g128
ag10
atp1293
Rp1294
F0.08109833971902937
sg1
((lp1295
g97
ag66
ag4
atp1296
Rp1297
F0.1500638569604087
sg1
((lp1298
g128
ag62
atp1299
Rp1300
F0.07598978288633461
sg1
((lp1301
S'582368'
p1302
atp1303
Rp1304
F0.03384418901660281
sg1
((lp1305
g8
ag10
atp1306
Rp1307
F0.10791826309067688
sg1
((lp1308
g97
ag9
ag10
atp1309
Rp1310
F0.07854406130268199
sg1
((lp1311
g51
ag84
atp1312
Rp1313
F0.028735632183908046
sg1
((lp1314
g93
ag14
atp1315
Rp1316
F0.02681992337164751
sg1
((lp1317
g128
ag171
atp1318
Rp1319
F0.11685823754789272
sg1
((lp1320
S'53364'
p1321
atp1322
Rp1323
F0.013409961685823755
sg1
((lp1324
g41
ag88
ag62
atp1325
Rp1326
F0.17177522349936142
sg1
((lp1327
g66
ag279
ag74
atp1328
Rp1329
F0.14623243933588762
sg1
((lp1330
g19
ag97
atp1331
Rp1332
F0.017241379310344827
sg1
((lp1333
g42
ag128
atp1334
Rp1335
F0.05747126436781609
sg1
((lp1336
g9
ag50
ag62
ag135
atp1337
Rp1338
F0.09642401021711366
sg1
((lp1339
g41
ag9
ag50
ag67
atp1340
Rp1341
F0.08748403575989783
sg1
((lp1342
g41
ag42
ag88
atp1343
Rp1344
F0.1673052362707535
sg1
((lp1345
g135
ag62
ag67
atp1346
Rp1347
F0.11047254150702426
sg1
((lp1348
g46
ag9
ag62
atp1349
Rp1350
F0.19540229885057472
sg1
((lp1351
S'55478'
p1352
atp1353
Rp1354
F0.02937420178799489
sg1
((lp1355
g30
ag14
atp1356
Rp1357
F0.004469987228607918
sg1
((lp1358
g279
ag74
ag4
atp1359
Rp1360
F0.16922094508301405
sg1
((lp1361
g41
ag42
ag9
ag10
atp1362
Rp1363
F0.16475095785440613
sg1
((lp1364
S'554181'
p1365
atp1366
Rp1367
F0.03065134099616858
sg1
((lp1368
S'53058'
p1369
atp1370
Rp1371
F0.014687100893997445
sg1
((lp1372
g41
ag42
ag9
ag51
ag62
atp1373
Rp1374
F0.1615581098339719
sg1
((lp1375
S'57057'
p1376
atp1377
Rp1378
F0.042784163473818644
sg1
((lp1379
S'57072'
p1380
atp1381
Rp1382
F0.05236270753512133
sg1
((lp1383
g9
ag51
ag135
atp1384
Rp1385
F0.14112388250319285
sg1
((lp1386
g26
atp1387
Rp1388
F0.18901660280970625
sg1
((lp1389
g97
ag66
ag74
ag4
atp1390
Rp1391
F0.14942528735632185
sg1
((lp1392
g8
ag151
atp1393
Rp1394
F0.015964240102171137
sg1
((lp1395
g51
ag14
atp1396
Rp1397
F0.026181353767560665
sg1
((lp1398
g19
ag14
atp1399
Rp1400
F0.0070242656449553
sg1
((lp1401
g10
ag67
atp1402
Rp1403
F0.11621966794380588
sg1
((lp1404
g92
ag200
atp1405
Rp1406
F0.16219667943805874
sg1
((lp1407
g74
ag135
atp1408
Rp1409
F0.06194125159642401
sg1
((lp1410
g41
ag42
ag9
ag62
atp1411
Rp1412
F0.2509578544061303
sg1
((lp1413
g26
ag41
atp1414
Rp1415
F0.05300127713920817
sg1
((lp1416
S'582343'
p1417
atp1418
Rp1419
F0.05300127713920817
sg1
((lp1420
g41
ag9
ag50
ag88
atp1421
Rp1422
F0.10089399744572158
sg1
((lp1423
g19
ag20
ag30
ag22
ag21
atp1424
Rp1425
F0.19029374201787994
sg1
((lp1426
g42
ag9
ag88
ag62
atp1427
Rp1428
F0.16091954022988506
sg1
((lp1429
S'53716'
p1430
atp1431
Rp1432
F0.019157088122605363
sg1
((lp1433
g8
ag9
ag50
atp1434
Rp1435
F0.10664112388250319
sg1
((lp1436
S'57003'
p1437
atp1438
Rp1439
F0.014687100893997445
sg1
((lp1440
g19
ag21
ag30
ag22
ag15
atp1441
Rp1442
F0.15708812260536398
sg1
((lp1443
g74
ag118
atp1444
Rp1445
F0.14814814814814814
sg1
((lp1446
g26
ag9
atp1447
Rp1448
F0.04342273307790549
sg1
((lp1449
g19
atp1450
Rp1451
F0.30842911877394635
sg1
((lp1452
g42
ag84
atp1453
Rp1454
F0.04853128991060025
sg1
((lp1455
g93
ag10
atp1456
Rp1457
F0.11558109833971902
sg1
((lp1458
g50
ag128
atp1459
Rp1460
F0.1360153256704981
sg1
((lp1461
S'530282'
p1462
atp1463
Rp1464
F0.1136653895274585
sg1
((lp1465
g354
ag3
atp1466
Rp1467
F0.024265644955300127
sg1
((lp1468
g42
atp1469
Rp1470
F0.31992337164750956
sg1
((lp1471
g8
ag171
atp1472
Rp1473
F0.10025542784163474
sg1
((lp1474
g279
ag67
atp1475
Rp1476
F0.04086845466155811
sg1
((lp1477
g9
ag51
ag67
atp1478
Rp1479
F0.13282247765006386
sg1
((lp1480
g21
ag10
atp1481
Rp1482
F0.05044699872286079
sg1
((lp1483
g42
ag354
atp1484
Rp1485
F0.05363984674329502
sg1
((lp1486
g88
ag151
atp1487
Rp1488
F0.015964240102171137
sg1
((lp1489
g84
ag15
atp1490
Rp1491
F0.004469987228607918
sg1
((lp1492
g50
ag62
ag67
atp1493
Rp1494
F0.08620689655172414
sg1
((lp1495
g3
ag84
atp1496
Rp1497
F0.037037037037037035
sg1
((lp1498
g20
ag135
atp1499
Rp1500
F0.017241379310344827
sg1
((lp1501
g114
ag20
atp1502
Rp1503
F0.005747126436781609
sg1
((lp1504
g46
ag151
atp1505
Rp1506
F0.017241379310344827
sg1
((lp1507
g88
atp1508
Rp1509
F0.20178799489144317
sg1
((lp1510
g41
ag9
ag50
ag62
ag135
atp1511
Rp1512
F0.09450830140485313
sg1
((lp1513
g200
ag279
ag74
atp1514
Rp1515
F0.14687100893997446
sg1
((lp1516
g3
ag74
atp1517
Rp1518
F0.07535121328224777
sg1
((lp1519
g444
ag21
atp1520
Rp1521
F0.04661558109833972
sg1
((lp1522
g84
atp1523
Rp1524
F0.17305236270753513
sg1
((lp1525
g51
ag200
atp1526
Rp1527
F0.009578544061302681
sg1
((lp1528
g20
ag30
atp1529
Rp1530
F0.23243933588761176
sg1
((lp1531
g354
ag88
atp1532
Rp1533
F0.04086845466155811
sg1
((lp1534
g41
ag19
atp1535
Rp1536
F0.06449553001277139
sg1
((lp1537
g20
ag4
atp1538
Rp1539
F0.006385696040868455
sg1
((lp1540
g88
ag118
atp1541
Rp1542
F0.07982120051085569
sg1
((lp1543
g97
ag279
ag74
ag4
atp1544
Rp1545
F0.1602809706257982
sg1
((lp1546
g279
ag135
atp1547
Rp1548
F0.0280970625798212
sg1
((lp1549
S'582302'
p1550
atp1551
Rp1552
F0.026181353767560665
sg1
((lp1553
g66
ag74
atp1554
Rp1555
F0.16091954022988506
sg1
((lp1556
g42
ag200
atp1557
Rp1558
F0.02234993614303959
sg1
((lp1559
S'53014'
p1560
atp1561
Rp1562
F0.06066411238825032
sg1
((lp1563
g128
ag67
atp1564
Rp1565
F0.03959131545338442
sg1
((lp1566
g19
ag20
ag30
ag21
atp1567
Rp1568
F0.21839080459770116
sg1
((lp1569
g8
ag128
atp1570
Rp1571
F0.10727969348659004
sg1
((lp1572
g41
ag9
ag88
ag67
atp1573
Rp1574
F0.09897828863346105
sg1
((lp1575
g41
ag9
ag51
ag135
atp1576
Rp1577
F0.13537675606641125
sg1
((lp1578
g8
ag19
atp1579
Rp1580
F0.02490421455938697
sg1
((lp1581
S'530105'
p1582
atp1583
Rp1584
F0.041507024265644954
sg1
((lp1585
g66
ag9
atp1586
Rp1587
F0.08109833971902937
sg1
((lp1588
g279
ag118
atp1589
Rp1590
F0.09897828863346105
sg1
((lp1591
g46
ag74
atp1592
Rp1593
F0.10153256704980843
sg1
((lp1594
g444
ag50
atp1595
Rp1596
F0.027458492975734355
sg1
((lp1597
g8
ag42
atp1598
Rp1599
F0.10600255427841634
sg1
((lp1600
g19
ag21
ag22
ag151
atp1601
Rp1602
F0.16283524904214558
sg1
((lp1603
S'582505'
p1604
atp1605
Rp1606
F0.05172413793103448
sg1
((lp1607
S'582520'
p1608
atp1609
Rp1610
F0.031289910600255426
sg1
((lp1611
g19
ag21
ag30
ag20
ag15
atp1612
Rp1613
F0.16666666666666666
sg1
((lp1614
g10
ag22
atp1615
Rp1616
F0.03959131545338442
sg1
((lp1617
g84
ag22
atp1618
Rp1619
F0.005108556832694764
sg1
((lp1620
g10
ag4
atp1621
Rp1622
F0.05938697318007663
sg1
((lp1623
g62
ag118
atp1624
Rp1625
F0.15772669220945082
sg1
((lp1626
g8
ag88
atp1627
Rp1628
F0.07279693486590039
sg1
((lp1629
g114
ag67
atp1630
Rp1631
F0.034482758620689655
sg1
((lp1632
S'582325'
p1633
atp1634
Rp1635
F0.02937420178799489
sg1
((lp1636
g444
ag15
atp1637
Rp1638
F0.019157088122605363
sg1
((lp1639
g8
ag97
ag9
atp1640
Rp1641
F0.07407407407407407
sg1
((lp1642
g21
ag30
ag15
atp1643
Rp1644
F0.18582375478927204
sg1
((lp1645
g354
ag22
atp1646
Rp1647
F0.02490421455938697
sg1
((lp1648
g93
ag135
atp1649
Rp1650
F0.1111111111111111
sg1
((lp1651
g14
ag10
atp1652
Rp1653
F0.06641123882503193
sg1
((lp1654
g92
ag19
atp1655
Rp1656
F0.004469987228607918
sg1
((lp1657
g41
ag62
ag118
atp1658
Rp1659
F0.14367816091954022
sg1
((lp1660
g46
ag279
atp1661
Rp1662
F0.0561941251596424
sg1
((lp1663
g9
ag88
ag135
atp1664
Rp1665
F0.10727969348659004
sg1
((lp1666
g92
ag46
atp1667
Rp1668
F0.04342273307790549
sg1
((lp1669
S'53715'
p1670
atp1671
Rp1672
F0.011494252873563218
sg1
((lp1673
g42
ag9
ag10
ag62
atp1674
Rp1675
F0.16666666666666666
sg1
((lp1676
g20
ag30
ag22
atp1677
Rp1678
F0.19859514687100893
sg1
((lp1679
g42
ag9
ag51
ag62
atp1680
Rp1681
F0.1698595146871009
sg1
((lp1682
g151
ag4
atp1683
Rp1684
F0.0038314176245210726
sg1
((lp1685
g26
ag20
atp1686
Rp1687
F0.026181353767560665
sg1
((lp1688
S'582640'
p1689
atp1690
Rp1691
F0.0140485312899106
sg1
((lp1692
g42
ag4
atp1693
Rp1694
F0.028735632183908046
sg1
((lp1695
S'57593'
p1696
atp1697
Rp1698
F0.03959131545338442
sg1
((lp1699
g92
ag88
atp1700
Rp1701
F0.022988505747126436
sg1
((lp1702
g92
ag14
atp1703
Rp1704
F0.13090676883780333
sg1
((lp1705
g97
ag3
atp1706
Rp1707
F0.06641123882503193
sg1
((lp1708
g19
ag21
ag30
ag15
atp1709
Rp1710
F0.18518518518518517
sg1
((lp1711
g151
ag135
atp1712
Rp1713
F0.009578544061302681
sg1
((lp1714
g50
ag22
atp1715
Rp1716
F0.02681992337164751
sg1
((lp1717
S'582353'
p1718
atp1719
Rp1720
F0.06130268199233716
sg1
((lp1721
g8
ag118
atp1722
Rp1723
F0.009578544061302681
sg1
((lp1724
g14
ag22
atp1725
Rp1726
F0.005108556832694764
sg1
((lp1727
g354
ag171
atp1728
Rp1729
F0.010855683269476373
sg1
((lp1730
g97
ag74
atp1731
Rp1732
F0.2822477650063857
sg1
((lp1733
S'530147'
p1734
atp1735
Rp1736
F0.01277139208173691
sg1
((lp1737
g114
ag9
atp1738
Rp1739
F0.1251596424010217
sg1
((lp1740
g444
ag62
atp1741
Rp1742
F0.05172413793103448
sg1
((lp1743
g62
ag67
atp1744
Rp1745
F0.1602809706257982
sg1
((lp1746
g171
ag135
atp1747
Rp1748
F0.004469987228607918
sg1
((lp1749
g41
ag50
ag3
atp1750
Rp1751
F0.1053639846743295
sg1
((lp1752
g9
ag118
atp1753
Rp1754
F0.20561941251596424
sg1
((lp1755
g41
ag42
ag51
ag88
atp1756
Rp1757
F0.10919540229885058
sg1
((lp1758
g8
ag9
ag67
atp1759
Rp1760
F0.07088122605363985
sg1
((lp1761
g8
ag74
atp1762
Rp1763
F0.12835249042145594
sg1
((lp1764
g93
ag4
atp1765
Rp1766
F0.01532567049808429
sg1
((lp1767
S'53724'
p1768
atp1769
Rp1770
F0.0561941251596424
sg1
((lp1771
S'530150'
p1772
atp1773
Rp1774
F0.0006385696040868455
sg1
((lp1775
g171
ag118
atp1776
Rp1777
F0.04980842911877394
sg1
((lp1778
g114
ag15
atp1779
Rp1780
F0.0038314176245210726
sg1
((lp1781
S'57063'
p1782
atp1783
Rp1784
F0.017241379310344827
sg1
((lp1785
S'53703'
p1786
atp1787
Rp1788
F0.07854406130268199
sg1
((lp1789
S'53726'
p1790
atp1791
Rp1792
F0.02490421455938697
sg1
((lp1793
g50
ag200
atp1794
Rp1795
F0.10280970625798212
sg1
((lp1796
g41
ag9
ag51
ag10
atp1797
Rp1798
F0.1206896551724138
sg1
((lp1799
g97
ag444
atp1800
Rp1801
F0.05683269476372925
sg1
((lp1802
g50
ag93
atp1803
Rp1804
F0.10472541507024266
sg1
((lp1805
g41
ag444
atp1806
Rp1807
F0.07662835249042145
sg1
((lp1808
g66
ag279
atp1809
Rp1810
F0.1475095785440613
sg1
((lp1811
g41
ag10
ag118
atp1812
Rp1813
F0.08045977011494253
sg1
((lp1814
g19
ag151
ag15
atp1815
Rp1816
F0.1768837803320562
sg1
((lp1817
S'57062'
p1818
atp1819
Rp1820
F0.0280970625798212
sg1
((lp1821
g97
ag88
atp1822
Rp1823
F0.06066411238825032
sg1
((lp1824
g354
ag93
atp1825
Rp1826
F0.02554278416347382
sg1
((lp1827
g354
ag200
atp1828
Rp1829
F0.0019157088122605363
sg1
((lp1830
g8
ag9
ag51
atp1831
Rp1832
F0.08109833971902937
sg1
((lp1833
g41
ag9
ag10
ag88
atp1834
Rp1835
F0.1194125159642401
sg1
((lp1836
g8
ag444
atp1837
Rp1838
F0.014687100893997445
sg1
((lp1839
S'582506'
p1840
atp1841
Rp1842
F0.05300127713920817
sg1
((lp1843
g26
ag444
ag354
atp1844
Rp1845
F0.1641123882503193
sg1
((lp1846
S'582666'
p1847
atp1848
Rp1849
F0.009578544061302681
sg1
((lp1850
g46
ag88
atp1851
Rp1852
F0.13090676883780333
sg1
((lp1853
g15
atp1854
Rp1855
F0.22860791826309068
sg1
((lp1856
g46
ag93
atp1857
Rp1858
F0.12388250319284802
sg1
((lp1859
g42
ag3
ag62
atp1860
Rp1861
F0.15708812260536398
sg1
((lp1862
g8
ag21
atp1863
Rp1864
F0.027458492975734355
sg1
((lp1865
S'582326'
p1866
atp1867
Rp1868
F0.02937420178799489
sg1
((lp1869
g354
ag74
atp1870
Rp1871
F0.06513409961685823
sg1
((lp1872
g22
ag118
atp1873
Rp1874
F0.018518518518518517
sg1
((lp1875
g19
ag88
atp1876
Rp1877
F0.02681992337164751
sg1
((lp1878
g66
ag10
atp1879
Rp1880
F0.04086845466155811
sg1
((lp1881
g9
ag88
ag62
atp1882
Rp1883
F0.17752234993614305
sg1
((lp1884
g41
ag93
ag62
atp1885
Rp1886
F0.16283524904214558
sg1
((lp1887
g118
ag15
atp1888
Rp1889
F0.012132822477650063
sg1
((lp1890
g46
ag4
atp1891
Rp1892
F0.040229885057471264
sg1
((lp1893
g66
ag93
atp1894
Rp1895
F0.002554278416347382
sg1
((lp1896
g50
ag279
atp1897
Rp1898
F0.13473818646232438
sg1
((lp1899
g19
ag15
atp1900
Rp1901
F0.2260536398467433
sg1
((lp1902
g42
ag9
ag10
atp1903
Rp1904
F0.17305236270753513
sg1
((lp1905
g42
ag93
ag62
atp1906
Rp1907
F0.15517241379310345
sg1
((lp1908
g41
ag9
ag10
ag67
atp1909
Rp1910
F0.10919540229885058
sg1
((lp1911
g30
ag15
atp1912
Rp1913
F0.19348659003831417
sg1
((lp1914
g128
ag200
atp1915
Rp1916
F0.13665389527458494
sg1
((lp1917
g97
ag9
ag50
atp1918
Rp1919
F0.11047254150702426
sg1
((lp1920
g128
ag15
atp1921
Rp1922
F0.005108556832694764
sg1
((lp1923
g30
ag3
atp1924
Rp1925
F0.0019157088122605363
sg1
((lp1926
g354
ag62
atp1927
Rp1928
F0.04342273307790549
sg1
((lp1929
g41
ag74
atp1930
Rp1931
F0.15900383141762453
sg1
((lp1932
S'582524'
p1933
atp1934
Rp1935
F0.031289910600255426
sg1
((lp1936
g21
ag30
ag151
atp1937
Rp1938
F0.1673052362707535
sg1
((lp1939
g97
ag15
atp1940
Rp1941
F0.0140485312899106
sg1
((lp1942
g51
ag62
atp1943
Rp1944
F0.19987228607918264
sg1
((lp1945
g8
ag30
atp1946
Rp1947
F0.012132822477650063
sg1
((lp1948
g9
ag14
atp1949
Rp1950
F0.1123882503192848
sg1
((lp1951
g42
ag3
ag88
atp1952
Rp1953
F0.11302681992337164
sg1
((lp1954
S'582516'
p1955
atp1956
Rp1957
F0.008939974457215836
sg1
((lp1958
g19
ag114
atp1959
Rp1960
F0.0070242656449553
sg1
((lp1961
g92
ag97
ag74
atp1962
Rp1963
F0.1756066411238825
sg1
((lp1964
g50
ag10
atp1965
Rp1966
F0.13984674329501914
sg1
((lp1967
g92
ag66
ag74
atp1968
Rp1969
F0.14623243933588762
sg1
((lp1970
g14
ag74
atp1971
Rp1972
F0.15517241379310345
sg1
((lp1973
g84
ag4
atp1974
Rp1975
F0.1360153256704981
sg1
((lp1976
g92
ag50
atp1977
Rp1978
F0.12579821200510855
sg1
((lp1979
S'582615'
p1980
atp1981
Rp1982
F0.018518518518518517
sg1
((lp1983
g9
ag51
ag62
ag135
atp1984
Rp1985
F0.13537675606641125
sg1
((lp1986
g41
ag42
ag67
atp1987
Rp1988
F0.13856960408684546
sg1
((lp1989
S'582330'
p1990
atp1991
Rp1992
F0.038952745849297574
sg1
((lp1993
g20
ag9
atp1994
Rp1995
F0.05683269476372925
sg1
((lp1996
g4
ag135
atp1997
Rp1998
F0.008301404853128991
sg1
((lp1999
g41
ag50
ag62
atp2000
Rp2001
F0.16475095785440613
sg1
((lp2002
g41
ag9
ag62
ag67
atp2003
Rp2004
F0.15261813537675606
sg1
((lp2005
g20
ag22
ag151
atp2006
Rp2007
F0.1602809706257982
sg1
((lp2008
g354
ag51
atp2009
Rp2010
F0.011494252873563218
sg1
((lp2011
g22
ag279
atp2012
Rp2013
F0.008301404853128991
sg1
((lp2014
g114
ag88
atp2015
Rp2016
F0.038314176245210725
sg1
((lp2017
g19
ag118
atp2018
Rp2019
F0.019157088122605363
sg1
((lp2020
g41
ag21
atp2021
Rp2022
F0.07982120051085569
sg1
((lp2023
S'55111'
p2024
atp2025
Rp2026
F0.02362707535121328
sg1
((lp2027
g8
ag279
atp2028
Rp2029
F0.10217113665389528
sg1
((lp2030
g30
ag10
atp2031
Rp2032
F0.020434227330779056
sg1
((lp2033
g41
ag9
ag62
ag135
atp2034
Rp2035
F0.1641123882503193
sg1
((lp2036
g9
ag51
ag50
ag62
atp2037
Rp2038
F0.10153256704980843
sg1
((lp2039
g19
ag21
ag22
atp2040
Rp2041
F0.23116219667943805
sg1
((lp2042
g92
ag151
atp2043
Rp2044
F0.004469987228607918
sg1
((lp2045
g19
ag50
atp2046
Rp2047
F0.028735632183908046
sg1
((lp2048
g20
ag21
atp2049
Rp2050
F0.29118773946360155
sg1
((lp2051
g41
ag50
atp2052
Rp2053
F0.20178799489144317
sg1
((lp2054
g128
atp2055
Rp2056
F0.22158365261813537
sg1
((lp2057
g42
ag9
ag10
ag88
atp2058
Rp2059
F0.11813537675606642
sg1
((lp2060
g41
ag279
atp2061
Rp2062
F0.09450830140485313
sg1
((lp2063
g8
ag50
atp2064
Rp2065
F0.12899106002554278
sg1
((lp2066
g92
ag97
ag200
atp2067
Rp2068
F0.15070242656449553
sg1
((lp2069
S'55722'
p2070
atp2071
Rp2072
F0.01979565772669221
sg1
((lp2073
S'53714'
p2074
atp2075
Rp2076
F0.017241379310344827
sg1
((lp2077
g97
ag354
atp2078
Rp2079
F0.05108556832694764
sg1
((lp2080
g92
ag9
atp2081
Rp2082
F0.11813537675606642
sg1
((lp2083
S'57592'
p2084
atp2085
Rp2086
F0.030012771392081736
sg1
((lp2087
S'581259'
p2088
atp2089
Rp2090
F0.09642401021711366
sg1
((lp2091
g50
ag88
atp2092
Rp2093
F0.10791826309067688
sg1
((lp2094
g92
ag97
atp2095
Rp2096
F0.17879948914431673
sg1
((lp2097
g46
ag67
atp2098
Rp2099
F0.1111111111111111
sg1
((lp2100
g42
ag67
atp2101
Rp2102
F0.14623243933588762
sg1
((lp2103
g41
ag42
ag93
atp2104
Rp2105
F0.15772669220945082
sg1
((lp2106
S'53337'
p2107
atp2108
Rp2109
F0.0280970625798212
sg1
((lp2110
g84
ag200
ag74
atp2111
Rp2112
F0.11494252873563218
sg1
((lp2113
g41
ag67
atp2114
Rp2115
F0.16794380587484037
sg1
((lp2116
g128
ag4
atp2117
Rp2118
F0.17177522349936142
sg1
((lp2119
g19
ag67
atp2120
Rp2121
F0.02554278416347382
sg1
((lp2122
g19
ag66
atp2123
Rp2124
F0.0006385696040868455
sg1
((lp2125
g42
ag46
ag9
ag62
atp2126
Rp2127
F0.1685823754789272
sg1
((lp2128
g26
ag62
atp2129
Rp2130
F0.03065134099616858
sg1
((lp2131
S'530148'
p2132
atp2133
Rp2134
F0.08173690932311622
sg1
((lp2135
g46
ag200
atp2136
Rp2137
F0.030012771392081736
sg1
((lp2138
g41
ag9
ag3
ag62
atp2139
Rp2140
F0.1583652618135377
sg1
((lp2141
g42
ag114
atp2142
Rp2143
F0.05300127713920817
sg1
((lp2144
g46
ag22
atp2145
Rp2146
F0.020434227330779056
sg1
((lp2147
g42
ag66
atp2148
Rp2149
F0.009578544061302681
sg1
((lp2150
S'57599'
p2151
atp2152
Rp2153
F0.0210727969348659
sg1
((lp2154
S'57026'
p2155
atp2156
Rp2157
F0.0140485312899106
sg1
((lp2158
g42
ag88
atp2159
Rp2160
F0.17496807151979565
sg1
((lp2161
g66
ag30
atp2162
Rp2163
F0.0006385696040868455
sg1
((lp2164
g97
ag22
atp2165
Rp2166
F0.018518518518518517
sg1
((lp2167
g62
ag4
atp2168
Rp2169
F0.04853128991060025
sg1
((lp2170
g19
ag200
atp2171
Rp2172
F0.0038314176245210726
sg1
((lp2173
g41
ag62
ag67
atp2174
Rp2175
F0.1532567049808429
sg1
((lp2176
g41
ag3
atp2177
Rp2178
F0.1698595146871009
sg1
((lp2179
g66
ag88
atp2180
Rp2181
F0.0031928480204342275
sg1
((lp2182
g444
ag128
atp2183
Rp2184
F0.0210727969348659
sg1
((lp2185
g42
ag9
ag3
atp2186
Rp2187
F0.1602809706257982
sg1
((lp2188
g19
ag20
ag30
ag22
atp2189
Rp2190
F0.19540229885057472
sg1
((lp2191
S'55238'
p2192
atp2193
Rp2194
F0.017879948914431672
sg1
((lp2195
S'530139'
p2196
atp2197
Rp2198
F0.06577266922094509
sg1
((lp2199
g41
ag46
ag9
atp2200
Rp2201
F0.19476372924648785
sg1
((lp2202
g42
ag88
ag62
atp2203
Rp2204
F0.1615581098339719
sg1
((lp2205
g62
ag135
atp2206
Rp2207
F0.1698595146871009
sg1
((lp2208
g92
ag20
atp2209
Rp2210
F0.004469987228607918
sg1
((lp2211
g41
ag3
ag10
atp2212
Rp2213
F0.11813537675606642
sg1
((lp2214
g51
ag62
ag135
atp2215
Rp2216
F0.13537675606641125
sg1
((lp2217
g92
ag279
ag74
ag4
atp2218
Rp2219
F0.1500638569604087
sg1
((lp2220
g3
ag14
atp2221
Rp2222
F0.03384418901660281
sg1
((lp2223
g9
ag135
atp2224
Rp2225
F0.17496807151979565
sg1
((lp2226
S'57101'
p2227
atp2228
Rp2229
F0.07854406130268199
sg1
((lp2230
g41
ag51
ag67
atp2231
Rp2232
F0.12579821200510855
sg1
((lp2233
S'57433'
p2234
atp2235
Rp2236
F0.011494252873563218
sg1
((lp2237
g26
ag8
atp2238
Rp2239
F0.009578544061302681
sg1
((lp2240
S'582507'
p2241
atp2242
Rp2243
F0.010217113665389528
sg1
((lp2244
g151
atp2245
Rp2246
F0.20689655172413793
sg1
((lp2247
g4
atp2248
Rp2249
F0.23180076628352492
sg1
((lp2250
g354
ag15
atp2251
Rp2252
F0.014687100893997445
sg1
((lp2253
g3
ag200
atp2254
Rp2255
F0.016602809706257982
sg1
((lp2256
g66
ag51
atp2257
Rp2258
F0.0006385696040868455
sg1
((lp2259
g97
ag66
atp2260
Rp2261
F0.15070242656449553
sg1
((lp2262
g30
ag84
atp2263
Rp2264
F0.004469987228607918
sg1
((lp2265
g26
ag30
atp2266
Rp2267
F0.0031928480204342275
sg1
((lp2268
S'581332'
p2269
atp2270
Rp2271
F0.04661558109833972
sg1
((lp2272
g41
ag88
atp2273
Rp2274
F0.18710089399744573
sg1
((lp2275
S'582350'
p2276
atp2277
Rp2278
F0.0491698595146871
sg1
((lp2279
g21
ag93
atp2280
Rp2281
F0.017241379310344827
sg1
((lp2282
g9
ag151
atp2283
Rp2284
F0.035759897828863345
sg1
((lp2285
g14
ag171
atp2286
Rp2287
F0.0913154533844189
sg1
((lp2288
g354
atp2289
Rp2290
F0.19604086845466157
sg1
((lp2291
g41
ag30
atp2292
Rp2293
F0.0351213282247765
sg1
((lp2294
g41
ag67
ag118
atp2295
Rp2296
F0.06896551724137931
sg1
((lp2297
g19
ag20
ag22
ag151
atp2298
Rp2299
F0.15772669220945082
sg1
((lp2300
g30
ag4
atp2301
Rp2302
F0.0031928480204342275
sg1
((lp2303
g74
ag15
atp2304
Rp2305
F0.017879948914431672
sg1
((lp2306
g84
ag88
atp2307
Rp2308
F0.033205619412515965
sg1
((lp2309
g41
ag50
ag51
atp2310
Rp2311
F0.10280970625798212
sg1
((lp2312
g3
ag151
atp2313
Rp2314
F0.013409961685823755
sg1
((lp2315
g114
ag4
atp2316
Rp2317
F0.14687100893997446
sg1
((lp2318
g42
ag151
atp2319
Rp2320
F0.034482758620689655
sg1
((lp2321
S'55025'
p2322
atp2323
Rp2324
F0.004469987228607918
sg1
((lp2325
g9
ag15
atp2326
Rp2327
F0.037675606641123884
sg1
((lp2328
g20
ag21
ag22
atp2329
Rp2330
F0.23499361430395913
sg1
((lp2331
g19
ag21
ag15
atp2332
Rp2333
F0.21519795657726692
sg1
((lp2334
g41
ag42
ag10
ag62
atp2335
Rp2336
F0.16091954022988506
sg1
((lp2337
g97
ag128
ag279
ag74
atp2338
Rp2339
F0.15900383141762453
sg1
((lp2340
g20
ag151
ag15
atp2341
Rp2342
F0.1545338441890166
sg1
((lp2343
g19
ag20
ag21
ag15
atp2344
Rp2345
F0.19284802043422733
sg1
((lp2346
S'57018'
p2347
atp2348
Rp2349
F0.05938697318007663
sg1
((lp2350
g50
ag30
atp2351
Rp2352
F0.013409961685823755
sg1
((lp2353
g66
ag128
atp2354
Rp2355
F0.13090676883780333
sg1
((lp2356
g42
ag3
ag10
atp2357
Rp2358
F0.11558109833971902
sg1
((lp2359
g30
ag51
atp2360
Rp2361
F0.0006385696040868455
sg1
((lp2362
g30
ag22
ag15
atp2363
Rp2364
F0.16347381864623245
sg1
((lp2365
g22
ag4
atp2366
Rp2367
F0.005108556832694764
sg1
((lp2368
g66
ag46
atp2369
Rp2370
F0.02362707535121328
sg1
((lp2371
g14
ag151
atp2372
Rp2373
F0.0038314176245210726
sg1
((lp2374
g51
ag279
atp2375
Rp2376
F0.03384418901660281
sg1
((lp2377
g8
ag67
atp2378
Rp2379
F0.07088122605363985
sg1
((lp2380
g41
ag46
atp2381
Rp2382
F0.2037037037037037
sg1
((lp2383
g50
ag4
atp2384
Rp2385
F0.1251596424010217
sg1
((lp2386
g26
ag50
atp2387
Rp2388
F0.018518518518518517
sg1
((lp2389
g8
ag84
atp2390
Rp2391
F0.08620689655172414
sg1
((lp2392
g14
atp2393
Rp2394
F0.16475095785440613
sg1
((lp2395
g66
ag62
atp2396
Rp2397
F0.02681992337164751
sg1
((lp2398
g97
ag128
ag4
atp2399
Rp2400
F0.15134099616858238
sg1
((lp2401
g8
ag354
atp2402
Rp2403
F0.013409961685823755
sg1
((lp2404
g200
ag62
atp2405
Rp2406
F0.038314176245210725
sg1
((lp2407
g41
ag42
ag9
ag10
ag88
atp2408
Rp2409
F0.1123882503192848
sg1
((lp2410
g41
ag42
ag9
ag51
ag10
atp2411
Rp2412
F0.10472541507024266
sg1
((lp2413
g444
ag3
atp2414
Rp2415
F0.030012771392081736
sg1
((lp2416
g41
ag3
ag67
atp2417
Rp2418
F0.11047254150702426
sg1
((lp2419
g22
ag88
atp2420
Rp2421
F0.026181353767560665
sg1
((lp2422
g97
atp2423
Rp2424
F0.30268199233716475
sg1
((lp2425
g3
ag67
atp2426
Rp2427
F0.11558109833971902
sg1
((lp2428
g114
ag444
atp2429
Rp2430
F0.017241379310344827
sg1
((lp2431
g9
ag279
atp2432
Rp2433
F0.1334610472541507
sg1
((lp2434
g444
ag200
atp2435
Rp2436
F0.0038314176245210726
sg1
((lp2437
g19
ag30
ag22
atp2438
Rp2439
F0.2062579821200511
sg1
((lp2440
S'53379'
p2441
atp2442
Rp2443
F0.05363984674329502
sg1
((lp2444
g97
ag62
atp2445
Rp2446
F0.10664112388250319
sg1
((lp2447
g21
ag51
atp2448
Rp2449
F0.028735632183908046
sg1
((lp2450
g41
ag3
ag51
atp2451
Rp2452
F0.11685823754789272
sg1
((lp2453
g66
ag128
ag4
atp2454
Rp2455
F0.13026819923371646
sg1
((lp2456
g41
ag9
ag88
ag62
atp2457
Rp2458
F0.17049808429118773
sg1
((lp2459
g128
ag135
atp2460
Rp2461
F0.031928480204342274
sg1
((lp2462
g41
ag9
ag51
ag67
atp2463
Rp2464
F0.12579821200510855
sg1
((lp2465
S'530141'
p2466
atp2467
Rp2468
F0.01979565772669221
sg1
((lp2469
g171
ag15
atp2470
Rp2471
F0.07279693486590039
sg1
((lp2472
g3
ag10
atp2473
Rp2474
F0.12260536398467432
sg1
((lp2475
g66
ag200
atp2476
Rp2477
F0.140485312899106
sg1
((lp2478
g128
ag84
atp2479
Rp2480
F0.15261813537675606
sg1
((lp2481
g97
ag9
atp2482
Rp2483
F0.17369093231162197
sg1
((lp2484
g20
ag93
atp2485
Rp2486
F0.017241379310344827
sg1
((lp2487
S'530215'
p2488
atp2489
Rp2490
F0.017241379310344827
sg1
((lp2491
g354
ag279
atp2492
Rp2493
F0.018518518518518517
sg1
((lp2494
g41
ag135
ag67
atp2495
Rp2496
F0.10983397190293742
sg1
((lp2497
g8
ag14
atp2498
Rp2499
F0.08812260536398467
sg1
((lp2500
g50
ag84
atp2501
Rp2502
F0.11174968071519796
sg1
((lp2503
g41
ag46
ag62
atp2504
Rp2505
F0.18773946360153257
sg1
((lp2506
g171
ag88
atp2507
Rp2508
F0.010855683269476373
sg1
((lp2509
S'53336'
p2510
atp2511
Rp2512
F0.04533844189016603
sg1
((lp2513
g92
ag128
ag279
atp2514
Rp2515
F0.13473818646232438
sg1
((lp2516
g128
ag279
ag4
atp2517
Rp2518
F0.14112388250319285
sg1
((lp2519
g8
ag9
atp2520
Rp2521
F0.16283524904214558
sg1
((lp2522
g92
ag21
atp2523
Rp2524
F0.005747126436781609
sg1
((lp2525
g92
ag10
atp2526
Rp2527
F0.06577266922094509
sg1
((lp2528
g10
ag135
atp2529
Rp2530
F0.11430395913154534
sg1
((lp2531
g10
ag62
atp2532
Rp2533
F0.20051085568326948
sg1
((lp2534
g41
ag9
ag50
ag62
atp2535
Rp2536
F0.1615581098339719
sg1
((lp2537
g9
ag50
ag74
atp2538
Rp2539
F0.12579821200510855
sg1
((lp2540
g8
ag97
atp2541
Rp2542
F0.10983397190293742
sg1
((lp2543
g114
ag128
ag74
atp2544
Rp2545
F0.15261813537675606
sg1
((lp2546
g19
ag20
ag15
atp2547
Rp2548
F0.19987228607918264
sg1
((lp2549
g42
ag10
ag62
atp2550
Rp2551
F0.1685823754789272
sg1
((lp2552
S'55016'
p2553
atp2554
Rp2555
F0.0561941251596424
sg1
((lp2556
g66
ag128
ag74
atp2557
Rp2558
F0.12962962962962962
sg1
((lp2559
g10
atp2560
Rp2561
F0.25734355044699875
sg1
((lp2562
g41
ag10
ag135
atp2563
Rp2564
F0.11047254150702426
sg1
((lp2565
g30
ag151
ag15
atp2566
Rp2567
F0.15134099616858238
sg1
((lp2568
g93
ag84
atp2569
Rp2570
F0.03065134099616858
sg1
((lp2571
g84
ag200
atp2572
Rp2573
F0.11621966794380588
sg1
((lp2574
g66
ag84
atp2575
Rp2576
F0.10919540229885058
sg1
((lp2577
g114
ag3
atp2578
Rp2579
F0.0421455938697318
sg1
((lp2580
g92
ag74
ag4
atp2581
Rp2582
F0.18901660280970625
sg1
((lp2583
g279
ag4
atp2584
Rp2585
F0.17049808429118773
sg1
((lp2586
S'53727'
p2587
atp2588
Rp2589
F0.010855683269476373
sg1
((lp2590
S'55221'
p2591
atp2592
Rp2593
F0.018518518518518517
sg1
((lp2594
g354
ag14
atp2595
Rp2596
F0.007662835249042145
sg1
((lp2597
g84
ag118
atp2598
Rp2599
F0.06577266922094509
sg1
((lp2600
g84
ag279
atp2601
Rp2602
F0.14431673052362706
sg1
((lp2603
g74
atp2604
Rp2605
F0.3665389527458493
sg1
((lp2606
g9
ag10
atp2607
Rp2608
F0.22158365261813537
sg1
((lp2609
g19
ag30
ag151
ag21
atp2610
Rp2611
F0.16666666666666666
sg1
((lp2612
g3
ag88
atp2613
Rp2614
F0.1206896551724138
sg1
((lp2615
g26
ag93
atp2616
Rp2617
F0.015964240102171137
sg1
((lp2618
g84
ag74
atp2619
Rp2620
F0.16283524904214558
sg1
((lp2621
g22
ag135
atp2622
Rp2623
F0.01532567049808429
sg1
((lp2624
g93
ag67
atp2625
Rp2626
F0.10280970625798212
sg1
((lp2627
g9
atp2628
Rp2629
F0.4661558109833972
sg1
((lp2630
g3
atp2631
Rp2632
F0.18071519795657726
sg1
((lp2633
S'530244'
p2634
atp2635
Rp2636
F0.017879948914431672
sg1
((lp2637
g171
ag67
atp2638
Rp2639
F0.007662835249042145
sg1
((lp2640
g88
ag74
atp2641
Rp2642
F0.07407407407407407
sg1
((lp2643
g9
ag50
ag135
atp2644
Rp2645
F0.10025542784163474
sg1
((lp2646
g14
ag118
atp2647
Rp2648
F0.06385696040868455
sg1
((lp2649
g9
ag4
atp2650
Rp2651
F0.1123882503192848
sg1
((lp2652
g42
ag46
atp2653
Rp2654
F0.18518518518518517
sg1
((lp2655
g128
ag279
ag74
atp2656
Rp2657
F0.1641123882503193
sg1
((lp2658
g20
ag22
atp2659
Rp2660
F0.24393358876117496
sg1
((lp2661
g30
ag151
atp2662
Rp2663
F0.17369093231162197
sg1
((lp2664
g19
ag3
atp2665
Rp2666
F0.0210727969348659
sg1
((lp2667
g41
ag15
atp2668
Rp2669
F0.04725415070242656
sg1
((lp2670
g9
ag74
atp2671
Rp2672
F0.20114942528735633
sg1
((lp2673
g46
ag128
atp2674
Rp2675
F0.06385696040868455
sg1
((lp2676
g20
ag50
atp2677
Rp2678
F0.026181353767560665
sg1
((lp2679
g19
ag42
atp2680
Rp2681
F0.04725415070242656
sg1
((lp2682
g8
ag9
ag88
atp2683
Rp2684
F0.07215836526181353
sg1
((lp2685
g444
ag10
atp2686
Rp2687
F0.04086845466155811
sg1
((lp2688
g88
ag62
atp2689
Rp2690
F0.17943805874840357
sg1
((lp2691
g66
ag279
ag74
ag4
atp2692
Rp2693
F0.14559386973180077
sg1
((lp2694
g46
ag135
atp2695
Rp2696
F0.12260536398467432
sg1
((lp2697
g4
ag67
atp2698
Rp2699
F0.012132822477650063
sg1
((lp2700
g19
ag74
atp2701
Rp2702
F0.02234993614303959
sg1
((lp2703
g41
ag9
ag135
atp2704
Rp2705
F0.16922094508301405
sg1
((lp2706
g8
ag15
atp2707
Rp2708
F0.015964240102171137
sg1
((lp2709
g21
ag22
ag151
atp2710
Rp2711
F0.16475095785440613
sg1
((lp2712
g21
atp2713
Rp2714
F0.34610472541507026
sg1
((lp2715
S'582335'
p2716
atp2717
Rp2718
F0.07215836526181353
sg1
((lp2719
g22
ag15
atp2720
Rp2721
F0.19157088122605365
sg1
((lp2722
g92
ag97
ag74
ag4
atp2723
Rp2724
F0.1602809706257982
sg1
((lp2725
g9
ag93
atp2726
Rp2727
F0.1698595146871009
sg1
((lp2728
g41
ag20
atp2729
Rp2730
F0.06960408684546615
sg1
((lp2731
g51
ag135
atp2732
Rp2733
F0.14112388250319285
sg1
((lp2734
g19
ag51
atp2735
Rp2736
F0.020434227330779056
sg1
((lp2737
S'582646'
p2738
atp2739
Rp2740
F0.0140485312899106
sg1
((lp2741
g444
ag84
atp2742
Rp2743
F0.014687100893997445
sg1
((lp2744
g21
ag171
atp2745
Rp2746
F0.09642401021711366
sg1
((lp2747
g92
ag128
ag74
atp2748
Rp2749
F0.1615581098339719
sg1
((lp2750
g42
ag51
atp2751
Rp2752
F0.17879948914431673
sg1
((lp2753
g9
ag62
ag135
atp2754
Rp2755
F0.16922094508301405
sg1
((lp2756
g41
ag9
ag88
atp2757
Rp2758
F0.1781609195402299
sg1
((lp2759
g42
ag10
atp2760
Rp2761
F0.18135376756066413
sg1
((lp2762
g41
ag14
atp2763
Rp2764
F0.07982120051085569
sg1
((lp2765
g19
ag444
atp2766
Rp2767
F0.02554278416347382
sg1
((lp2768
g19
ag135
atp2769
Rp2770
F0.016602809706257982
sg1
((lp2771
g114
ag74
ag97
atp2772
Rp2773
F0.15517241379310345
sg1
((lp2774
g9
ag93
ag62
atp2775
Rp2776
F0.16475095785440613
sg1
((lp2777
g8
ag4
atp2778
Rp2779
F0.10472541507024266
sg1
((lp2780
S'582206'
p2781
atp2782
Rp2783
F0.12835249042145594
sg1
((lp2784
g41
ag42
ag9
atp2785
Rp2786
F0.2720306513409962
sg1
((lp2787
g41
ag93
atp2788
Rp2789
F0.1698595146871009
sg1
((lp2790
S'582201'
p2791
atp2792
Rp2793
F0.0491698595146871
sg1
((lp2794
S'55727'
p2795
atp2796
Rp2797
F0.040229885057471264
sg1
((lp2798
g19
ag84
atp2799
Rp2800
F0.006385696040868455
sg1
((lp2801
g41
ag42
ag46
ag62
atp2802
Rp2803
F0.1641123882503193
sg1
((lp2804
g41
ag42
ag9
ag51
ag88
atp2805
Rp2806
F0.10919540229885058
sg1
((lp2807
g10
ag200
atp2808
Rp2809
F0.05108556832694764
sg1
((lp2810
g26
ag114
atp2811
Rp2812
F0.008939974457215836
sg1
((lp2813
g67
atp2814
Rp2815
F0.18326947637292465
sg1
((lp2816
g26
ag14
atp2817
Rp2818
F0.004469987228607918
sg1
((lp2819
g20
ag30
ag151
atp2820
Rp2821
F0.15261813537675606
sg1
((lp2822
g3
ag171
atp2823
Rp2824
F0.009578544061302681
sg1
((lp2825
g9
ag171
atp2826
Rp2827
F0.09770114942528736
sg1
((lp2828
g30
ag279
atp2829
Rp2830
F0.005108556832694764
sg1
((lp2831
g114
ag93
atp2832
Rp2833
F0.03639846743295019
sg1
((lp2834
g444
ag93
atp2835
Rp2836
F0.031289910600255426
sg1
((lp2837
S'55584'
p2838
atp2839
Rp2840
F0.01532567049808429
sg1
((lp2841
g19
ag279
atp2842
Rp2843
F0.008301404853128991
sg1
((lp2844
S'55418'
p2845
atp2846
Rp2847
F0.03639846743295019
sg1
((lp2848
S'53541'
p2849
atp2850
Rp2851
F0.019157088122605363
sg1
((lp2852
g88
ag67
atp2853
Rp2854
F0.10344827586206896
sg1
((lp2855
g171
ag74
atp2856
Rp2857
F0.15134099616858238
sg1
((lp2858
g93
ag118
atp2859
Rp2860
F0.07982120051085569
sg1
((lp2861
g42
ag9
ag62
atp2862
Rp2863
F0.26309067688378035
sg1
((lp2864
g41
ag51
ag88
atp2865
Rp2866
F0.1194125159642401
sg1
((lp2867
g74
ag67
atp2868
Rp2869
F0.06449553001277139
sg1
((lp2870
g9
ag67
atp2871
Rp2872
F0.17496807151979565
sg1
((lp2873
g279
atp2874
Rp2875
F0.2247765006385696
sg1
((lp2876
g41
ag3
ag118
atp2877
Rp2878
F0.06066411238825032
sg1
((lp2879
g41
ag42
ag135
atp2880
Rp2881
F0.15261813537675606
sg1
((lp2882
g8
ag22
atp2883
Rp2884
F0.024265644955300127
sg1
((lp2885
g97
ag4
atp2886
Rp2887
F0.1826309067688378
sg1
((lp2888
S'58127'
p2889
atp2890
Rp2891
F0.11494252873563218
sg1
((lp2892
g88
ag4
atp2893
Rp2894
F0.015964240102171137
sg1
((lp2895
g41
ag9
ag135
ag67
atp2896
Rp2897
F0.10983397190293742
sg1
((lp2898
g279
ag62
atp2899
Rp2900
F0.07279693486590039
sg1
((lp2901
g10
ag171
atp2902
Rp2903
F0.05491698595146871
sg1
((lp2904
g42
ag9
ag51
ag10
atp2905
Rp2906
F0.10983397190293742
sg1
((lp2907
g9
ag51
atp2908
Rp2909
F0.2177522349936143
sg1
((lp2910
g9
ag22
atp2911
Rp2912
F0.05044699872286079
sg1
((lp2913
g93
ag3
atp2914
Rp2915
F0.12707535121328226
sg1
((lp2916
S'55525'
p2917
atp2918
Rp2919
F0.13218390804597702
sg1
((lp2920
S'57056'
p2921
atp2922
Rp2923
F0.017241379310344827
sg1
((lp2924
g66
ag15
atp2925
Rp2926
F0.0006385696040868455
sg1
((lp2927
S'53604'
p2928
atp2929
Rp2930
F0.0140485312899106
sg1
((lp2931
g42
ag20
atp2932
Rp2933
F0.04980842911877394
sg1
((lp2934
g42
ag93
atp2935
Rp2936
F0.16475095785440613
sg1
((lp2937
S'530138'
p2938
atp2939
Rp2940
F0.06194125159642401
sg1
((lp2941
g41
ag9
ag51
ag62
atp2942
Rp2943
F0.19029374201787994
sg1
((lp2944
g92
ag97
ag279
ag74
atp2945
Rp2946
F0.1532567049808429
sg1
((lp2947
g42
ag62
atp2948
Rp2949
F0.2707535121328225
sg1
((lp2950
g19
ag20
ag22
ag15
atp2951
Rp2952
F0.1781609195402299
sg1
((lp2953
g444
ag151
atp2954
Rp2955
F0.017241379310344827
sg1
((lp2956
S'55422'
p2957
atp2958
Rp2959
F0.07407407407407407
sg1
((lp2960
g19
ag20
ag21
ag22
ag151
atp2961
Rp2962
F0.1532567049808429
sg1
((lp2963
g46
ag118
atp2964
Rp2965
F0.1053639846743295
sg1
((lp2966
g26
ag74
atp2967
Rp2968
F0.06321839080459771
sg1
((lp2969
S'57001'
p2970
atp2971
Rp2972
F0.0983397190293742
sg1
((lp2973
S'55328'
p2974
atp2975
Rp2976
F0.09770114942528736
sg1
((lp2977
g66
ag200
ag74
atp2978
Rp2979
F0.13856960408684546
sg1
((lp2980
g41
ag42
ag3
atp2981
Rp2982
F0.15964240102171137
sg1
((lp2983
g41
ag97
atp2984
Rp2985
F0.13729246487867178
sg1
((lp2986
g20
ag30
ag22
ag15
atp2987
Rp2988
F0.15517241379310345
sg1
((lp2989
g93
ag88
atp2990
Rp2991
F0.13665389527458494
sg1
((lp2992
g41
ag50
ag51
ag62
atp2993
Rp2994
F0.0983397190293742
sg1
((lp2995
g19
ag20
ag22
atp2996
Rp2997
F0.2260536398467433
sg1
((lp2998
g41
ag22
atp2999
Rp3000
F0.06257982120051085
sg1
((lp3001
g42
ag118
atp3002
Rp3003
F0.1277139208173691
sg1
((lp3004
g19
ag20
ag30
ag151
atp3005
Rp3006
F0.15197956577266922
sg1
((lp3007
g62
ag15
atp3008
Rp3009
F0.030012771392081736
sg1
((lp3010
g30
ag354
atp3011
Rp3012
F0.012132822477650063
sg1
((lp3013
g3
ag62
atp3014
Rp3015
F0.1673052362707535
sg1
((lp3016
S'57133'
p3017
atp3018
Rp3019
F0.05874840357598978
sg1
((lp3020
g97
ag50
atp3021
Rp3022
F0.15197956577266922
sg1
((lp3023
S'582511'
p3024
atp3025
Rp3026
F0.0070242656449553
sg1
((lp3027
S'57703'
p3028
atp3029
Rp3030
F0.02490421455938697
sg1
((lp3031
S'55033'
p3032
atp3033
Rp3034
F0.027458492975734355
sg1
((lp3035
g41
ag354
atp3036
Rp3037
F0.06321839080459771
sg1
((lp3038
S'55003'
p3039
atp3040
Rp3041
F0.020434227330779056
sg1
((lp3042
g19
ag20
ag30
ag15
atp3043
Rp3044
F0.1724137931034483
sg1
((lp3045
g19
ag354
atp3046
Rp3047
F0.019157088122605363
sg1
((lp3048
g97
ag171
atp3049
Rp3050
F0.13090676883780333
sg1
((lp3051
g50
ag21
atp3052
Rp3053
F0.032567049808429116
sg1
((lp3054
g41
ag9
ag10
atp3055
Rp3056
F0.19987228607918264
sg1
((lp3057
g4
ag15
atp3058
Rp3059
F0.004469987228607918
sg1
((lp3060
g30
ag74
atp3061
Rp3062
F0.014687100893997445
sg1
((lp3063
g66
ag84
ag74
atp3064
Rp3065
F0.10791826309067688
sg1
((lp3066
g9
ag51
ag50
atp3067
Rp3068
F0.10664112388250319
sg1
((lp3069
S'537010'
p3070
atp3071
Rp3072
F0.03639846743295019
sg1
((lp3073
S'57046'
p3074
atp3075
Rp3076
F0.08684546615581099
sg1
((lp3077
g42
ag9
ag50
atp3078
Rp3079
F0.1545338441890166
sg1
((lp3080
g41
ag9
ag51
ag50
ag62
atp3081
Rp3082
F0.0983397190293742
sg1
((lp3083
g74
ag151
atp3084
Rp3085
F0.015964240102171137
sg1
((lp3086
g46
ag15
atp3087
Rp3088
F0.016602809706257982
sg1
((lp3089
g41
ag42
ag10
atp3090
Rp3091
F0.1724137931034483
sg1
((lp3092
S'581326'
p3093
atp3094
Rp3095
F0.01979565772669221
sg1
((lp3096
g26
ag444
atp3097
Rp3098
F0.18135376756066413
sg1
((lp3099
g3
ag51
atp3100
Rp3101
F0.12196679438058748
sg1
((lp3102
g10
ag88
atp3103
Rp3104
F0.13026819923371646
sg1
((lp3105
g41
ag42
ag9
ag10
ag62
atp3106
Rp3107
F0.15900383141762453
sg1
((lp3108
g97
ag51
atp3109
Rp3110
F0.0561941251596424
sg1
((lp3111
g444
ag279
atp3112
Rp3113
F0.020434227330779056
sg1
((lp3114
S'53905'
p3115
atp3116
Rp3117
F0.09770114942528736
sg1
((lp3118
S'55101'
p3119
atp3120
Rp3121
F0.044061302681992334
sg1
((lp3122
g20
ag67
atp3123
Rp3124
F0.026181353767560665
sg1
((lp3125
g14
ag135
atp3126
Rp3127
F0.02234993614303959
sg1
((lp3128
g97
ag74
ag66
atp3129
Rp3130
F0.1500638569604087
sg1
((lp3131
g42
ag22
atp3132
Rp3133
F0.042784163473818644
sg1
((lp3134
g92
ag444
atp3135
Rp3136
F0.009578544061302681
sg1
((lp3137
g9
ag74
ag62
atp3138
Rp3139
F0.12132822477650064
sg1
((lp3140
g26
ag92
atp3141
Rp3142
F0.005747126436781609
sg1
((lp3143
g93
ag151
atp3144
Rp3145
F0.009578544061302681
sg1
((lp3146
S'530104'
p3147
atp3148
Rp3149
F0.06385696040868455
sg1
((lp3150
g19
ag22
atp3151
Rp3152
F0.24010217113665389
sg1
((lp3153
g135
ag118
atp3154
Rp3155
F0.08237547892720307
sg1
((lp3156
g114
ag50
atp3157
Rp3158
F0.12643678160919541
sg1
((lp3159
g19
ag10
atp3160
Rp3161
F0.041507024265644954
sg1
((lp3162
g114
ag200
atp3163
Rp3164
F0.11877394636015326
sg1
((lp3165
S'55036'
p3166
atp3167
Rp3168
F0.026181353767560665
sg1
((lp3169
g42
ag9
ag93
atp3170
Rp3171
F0.15772669220945082
sg1
((lp3172
g21
ag20
ag30
ag15
atp3173
Rp3174
F0.1673052362707535
sg1
((lp3175
g92
ag66
ag74
ag4
atp3176
Rp3177
F0.14559386973180077
sg1
((lp3178
g444
ag30
atp3179
Rp3180
F0.017241379310344827
sg1
((lp3181
g20
ag62
atp3182
Rp3183
F0.0491698595146871
sg1
((lp3184
g66
ag128
ag74
ag4
atp3185
Rp3186
F0.12899106002554278
sg1
((lp3187
g21
ag67
atp3188
Rp3189
F0.03384418901660281
sg1
((lp3190
S'530168'
p3191
atp3192
Rp3193
F0.01979565772669221
sg1
((lp3194
g93
ag171
atp3195
Rp3196
F0.007662835249042145
sg1
((lp3197
g114
ag279
atp3198
Rp3199
F0.1558109833971903
sg1
((lp3200
g135
ag15
atp3201
Rp3202
F0.008939974457215836
sg1
((lp3203
S'53723'
p3204
atp3205
Rp3206
F0.07279693486590039
sg1
((lp3207
g19
ag22
ag151
atp3208
Rp3209
F0.1698595146871009
sg1
((lp3210
g8
ag200
atp3211
Rp3212
F0.0842911877394636
sg1
((lp3213
g92
ag84
atp3214
Rp3215
F0.13537675606641125
sg1
((lp3216
g92
ag42
atp3217
Rp3218
F0.04086845466155811
sg1
((lp3219
g41
ag9
ag51
atp3220
Rp3221
F0.20753512132822477
sg1
((lp3222
g50
ag74
atp3223
Rp3224
F0.1743295019157088
sg1
((lp3225
S'53501'
p3226
atp3227
Rp3228
F0.034482758620689655
sg1
((lp3229
g92
ag279
ag74
atp3230
Rp3231
F0.1615581098339719
sg1
((lp3232
g114
ag21
atp3233
Rp3234
F0.007662835249042145
sg1
((lp3235
g171
ag151
atp3236
Rp3237
F0.06832694763729247
sg1
((lp3238
g19
ag30
ag151
ag15
atp3239
Rp3240
F0.15070242656449553
sg1
((lp3241
S'57595'
p3242
atp3243
Rp3244
F0.037037037037037035
sg1
((lp3245
S'582101'
p3246
atp3247
Rp3248
F0.020434227330779056
sg1
((lp3249
g444
ag20
atp3250
Rp3251
F0.041507024265644954
sg1
((lp3252
S'53725'
p3253
atp3254
Rp3255
F0.032567049808429116
sg1
((lp3256
g97
ag9
ag67
atp3257
Rp3258
F0.05555555555555555
sg1
((lp3259
S'53861'
p3260
atp3261
Rp3262
F0.0280970625798212
sg1
((lp3263
g93
ag15
atp3264
Rp3265
F0.009578544061302681
sg1
((lp3266
g92
ag62
atp3267
Rp3268
F0.05938697318007663
sg1
((lp3269
g97
ag46
atp3270
Rp3271
F0.07918263090676884
sg1
((lp3272
g21
ag135
atp3273
Rp3274
F0.021711366538952746
sg1
((lp3275
g50
ag354
atp3276
Rp3277
F0.02362707535121328
sg1
((lp3278
S'530103'
p3279
atp3280
Rp3281
F0.09195402298850575
sg1
((lp3282
S'582733'
p3283
atp3284
Rp3285
F0.022988505747126436
sg1
((lp3286
g66
ag279
ag4
atp3287
Rp3288
F0.14687100893997446
sg1
((lp3289
g93
ag200
atp3290
Rp3291
F0.01277139208173691
sg1
((lp3292
g21
ag118
atp3293
Rp3294
F0.02681992337164751
sg1
((lp3295
g9
ag3
atp3296
Rp3297
F0.17113665389527458
sg1
((lp3298
g8
ag46
atp3299
Rp3300
F0.08876117496807152
sg1
((lp3301
g279
ag74
atp3302
Rp3303
F0.21008939974457216
sg1
((lp3304
g26
ag67
atp3305
Rp3306
F0.0038314176245210726
sg1
((lp3307
g97
ag67
atp3308
Rp3309
F0.05683269476372925
sg1
((lp3310
g66
ag4
atp3311
Rp3312
F0.16347381864623245
sg1
((lp3313
g21
ag30
ag22
ag15
atp3314
Rp3315
F0.15772669220945082
sg1
((lp3316
g97
ag279
ag74
atp3317
Rp3318
F0.1966794380587484
sg1
((lp3319
g92
ag97
ag128
ag74
atp3320
Rp3321
F0.14431673052362706
sg1
((lp3322
g22
ag151
atp3323
Rp3324
F0.1724137931034483
sg1
((lp3325
g51
ag67
atp3326
Rp3327
F0.1334610472541507
sg1
((lp3328
g200
ag4
atp3329
Rp3330
F0.15964240102171137
sg1
((lp3331
g128
ag22
atp3332
Rp3333
F0.008301404853128991
sg1
((lp3334
g114
ag74
atp3335
Rp3336
F0.1724137931034483
sg1
((lp3337
g97
ag135
atp3338
Rp3339
F0.05108556832694764
sg1
((lp3340
g41
ag42
ag51
ag10
atp3341
Rp3342
F0.10472541507024266
sg1
((lp3343
g26
ag128
atp3344
Rp3345
F0.01277139208173691
sg1
((lp3346
g66
ag354
atp3347
Rp3348
F0.0
sg1
((lp3349
g19
ag30
ag22
ag15
atp3350
Rp3351
F0.16283524904214558
sg1
((lp3352
g21
ag3
atp3353
Rp3354
F0.02554278416347382
sg1
((lp3355
S'581358'
p3356
atp3357
Rp3358
F0.02554278416347382
sg1
((lp3359
g84
ag14
atp3360
Rp3361
F0.12132822477650064
sg1
((lp3362
g151
ag118
atp3363
Rp3364
F0.010217113665389528
sg1
((lp3365
g51
ag171
atp3366
Rp3367
F0.008939974457215836
sg1
((lp3368
g92
ag97
ag279
atp3369
Rp3370
F0.15517241379310345
sg1
((lp3371
g42
ag279
atp3372
Rp3373
F0.05363984674329502
sg1
((lp3374
g67
ag15
atp3375
Rp3376
F0.014687100893997445
sg1
((lp3377
S'55537'
p3378
atp3379
Rp3380
F0.0970625798212005
sg1
((lp3381
g67
ag118
atp3382
Rp3383
F0.07343550446998723
sg1
((lp3384
g9
ag10
ag135
atp3385
Rp3386
F0.1136653895274585
sg1
((lp3387
g84
ag135
atp3388
Rp3389
F0.02362707535121328
sg1
((lp3390
g41
ag9
ag88
ag135
atp3391
Rp3392
F0.1040868454661558
sg1
((lp3393
g114
ag171
atp3394
Rp3395
F0.09642401021711366
sg1
((lp3396
g66
ag151
atp3397
Rp3398
F0.0006385696040868455
sg1
((lp3399
g88
ag15
atp3400
Rp3401
F0.017241379310344827
sg1
((lp3402
g97
ag30
atp3403
Rp3404
F0.012132822477650063
sg1
((lp3405
S'582304'
p3406
atp3407
Rp3408
F0.031289910600255426
sg1
((lp3409
S'582510'
p3410
atp3411
Rp3412
F0.007662835249042145
sg1
((lp3413
g46
atp3414
Rp3415
F0.23116219667943805
sg1
((lp3416
g19
ag62
atp3417
Rp3418
F0.044061302681992334
sg1
((lp3419
g9
ag10
ag67
atp3420
Rp3421
F0.11430395913154534
sg1
((lp3422
g41
ag62
atp3423
Rp3424
F0.322477650063857
sg1
((lp3425
g9
ag84
atp3426
Rp3427
F0.1136653895274585
sg1
((lp3428
S'581260'
p3429
atp3430
Rp3431
F0.06130268199233716
sg1
((lp3432
g66
ag22
atp3433
Rp3434
F0.001277139208173691
sg1
((lp3435
g114
ag62
atp3436
Rp3437
F0.07088122605363985
sg1
((lp3438
g19
ag30
atp3439
Rp3440
F0.25351213282247764
sg1
((lp3441
S'53028'
p3442
atp3443
Rp3444
F0.024265644955300127
sg1
((lp3445
g92
ag171
atp3446
Rp3447
F0.12899106002554278
sg1
((lp3448
g444
ag46
atp3449
Rp3450
F0.03065134099616858
sg1
((lp3451
g8
ag66
atp3452
Rp3453
F0.08045977011494253
sg1
((lp3454
g62
atp3455
Rp3456
F0.35759897828863346
sg1
((lp3457
g19
ag9
atp3458
Rp3459
F0.05236270753512133
sg1
((lp3460
g20
ag200
atp3461
Rp3462
F0.0038314176245210726
sg1
((lp3463
g92
ag66
atp3464
Rp3465
F0.14814814814814814
sg1
((lp3466
g41
ag9
atp3467
Rp3468
F0.37611749680715195
sg1
((lp3469
g42
ag9
ag51
ag88
atp3470
Rp3471
F0.1123882503192848
sg1
((lp3472
S'537011'
p3473
atp3474
Rp3475
F0.0140485312899106
sg1
((lp3476
g9
ag74
ag67
atp3477
Rp3478
F0.06321839080459771
sg1
((lp3479
g21
ag151
ag15
atp3480
Rp3481
F0.1698595146871009
sg1
((lp3482
g14
ag200
atp3483
Rp3484
F0.11047254150702426
sg1
((lp3485
S'55014'
p3486
atp3487
Rp3488
F0.08045977011494253
sg1
((lp3489
g97
ag9
ag74
atp3490
Rp3491
F0.1602809706257982
sg1
((lp3492
g41
ag9
ag51
ag88
atp3493
Rp3494
F0.1194125159642401
sg1
((lp3495
g20
ag151
atp3496
Rp3497
F0.17943805874840357
sg1
((lp3498
g50
ag62
atp3499
Rp3500
F0.1781609195402299
sg1
((lp3501
g30
ag22
atp3502
Rp3503
F0.20945083014048532
sg1
((lp3504
g8
ag3
atp3505
Rp3506
F0.0772669220945083
sg1
((lp3507
g88
ag135
atp3508
Rp3509
F0.10791826309067688
sg1
((lp3510
g41
ag42
ag10
ag88
atp3511
Rp3512
F0.11494252873563218
sg1
((lp3513
g444
ag354
atp3514
Rp3515
F0.19284802043422733
sg1
((lp3516
g20
ag21
ag15
atp3517
Rp3518
F0.19476372924648785
sg1
((lp3519
S'582202'
p3520
atp3521
Rp3522
F0.14942528735632185
sg1
((lp3523
S'582630'
p3524
atp3525
Rp3526
F0.020434227330779056
sg1
((lp3527
g97
ag93
atp3528
Rp3529
F0.06385696040868455
sg1
((lp3530
g51
ag4
atp3531
Rp3532
F0.010855683269476373
sg1
((lp3533
g92
ag22
atp3534
Rp3535
F0.005747126436781609
sg1
((lp3536
S'55621'
p3537
atp3538
Rp3539
F0.03639846743295019
sg1
((lp3540
g9
ag50
ag62
atp3541
Rp3542
F0.1724137931034483
sg1
((lp3543
g26
ag42
atp3544
Rp3545
F0.044061302681992334
sg1
((lp3546
g200
atp3547
Rp3548
F0.17113665389527458
sg1
((lp3549
g84
ag171
atp3550
Rp3551
F0.09195402298850575
sg1
((lp3552
g20
ag171
atp3553
Rp3554
F0.08876117496807152
sg1
((lp3555
g26
ag19
atp3556
Rp3557
F0.008939974457215836
sg1
((lp3558
S'55028'
p3559
atp3560
Rp3561
F0.1583652618135377
sg1
((lp3562
g97
ag10
atp3563
Rp3564
F0.09642401021711366
sg1
((lp3565
g10
ag15
atp3566
Rp3567
F0.02937420178799489
sg1
((lp3568
g66
atp3569
Rp3570
F0.1641123882503193
sg1
((lp3571
g41
ag50
ag10
atp3572
Rp3573
F0.11877394636015326
sg1
((lp3574
g3
ag279
atp3575
Rp3576
F0.0421455938697318
sg1
((lp3577
g8
ag135
atp3578
Rp3579
F0.06896551724137931
sg1
((lp3580
g19
ag20
ag21
atp3581
Rp3582
F0.2567049808429119
sg1
((lp3583
g444
ag22
atp3584
Rp3585
F0.032567049808429116
sg1
((lp3586
g41
ag88
ag118
atp3587
Rp3588
F0.07598978288633461
sg1
((lp3589
g444
ag14
atp3590
Rp3591
F0.010217113665389528
sg1
((lp3592
g41
ag42
ag46
atp3593
Rp3594
F0.1756066411238825
sg1
((lp3595
g41
ag9
ag50
ag135
atp3596
Rp3597
F0.09770114942528736
sg1
((lp3598
g128
ag88
atp3599
Rp3600
F0.0421455938697318
sg1
((lp3601
g92
ag128
atp3602
Rp3603
F0.16602809706257982
sg1
((lp3604
S'582508'
p3605
atp3606
Rp3607
F0.06066411238825032
sg1
((lp3608
g21
ag14
atp3609
Rp3610
F0.006385696040868455
sg1
((lp3611
g354
ag67
atp3612
Rp3613
F0.014687100893997445
sg1
((lp3614
g50
ag3
atp3615
Rp3616
F0.1123882503192848
sg1
((lp3617
g21
ag22
atp3618
Rp3619
F0.25287356321839083
sg1
((lp3620
g41
ag88
ag135
atp3621
Rp3622
F0.10472541507024266
sg1
((lp3623
g19
ag30
ag15
atp3624
Rp3625
F0.19284802043422733
sg1
((lp3626
S'53697'
p3627
atp3628
Rp3629
F0.015964240102171137
sg1
((lp3630
g41
ag42
ag118
atp3631
Rp3632
F0.1206896551724138
sg1
((lp3633
g171
atp3634
Rp3635
F0.24776500638569604
sg1
((lp3636
g41
ag9
ag51
ag50
atp3637
Rp3638
F0.10280970625798212
sg1
((lp3639
S'582417'
p3640
atp3641
Rp3642
F0.02362707535121328
sg1
((lp3643
g50
atp3644
Rp3645
F0.28671775223499363
sg1
((lp3646
S'530214'
p3647
atp3648
Rp3649
F0.017879948914431672
sg1
((lp3650
g42
ag97
atp3651
Rp3652
F0.09259259259259259
sg1
((lp3653
S'530102'
p3654
atp3655
Rp3656
F0.1136653895274585
sg1
((lp3657
g19
ag128
atp3658
Rp3659
F0.008301404853128991
sg1
((lp3660
S'530140'
p3661
atp3662
Rp3663
F0.13665389527458494
sg1
((lp3664
g128
ag151
atp3665
Rp3666
F0.005108556832694764
sg1
((lp3667
g92
ag135
atp3668
Rp3669
F0.019157088122605363
sg1
((lp3670
g8
ag51
atp3671
Rp3672
F0.08109833971902937
sg1
((lp3673
g20
ag21
ag22
ag151
atp3674
Rp3675
F0.15517241379310345
sg1
((lp3676
g118
atp3677
Rp3678
F0.2707535121328225
sg1
((lp3679
S'530284'
p3680
atp3681
Rp3682
F0.06832694763729247
sg1
((lp3683
g46
ag51
atp3684
Rp3685
F0.13154533844189017
sg1
((lp3686
S'582219'
p3687
atp3688
Rp3689
F0.06257982120051085
sg1
((lp3690
g19
ag20
atp3691
Rp3692
F0.26500638569604085
sg1
((lp3693
S'57027'
p3694
atp3695
Rp3696
F0.13409961685823754
sg1
((lp3697
g200
ag15
atp3698
Rp3699
F0.0038314176245210726
sg1
((lp3700
g97
ag279
ag4
atp3701
Rp3702
F0.16091954022988506
sg1
((lp3703
g41
ag51
atp3704
Rp3705
F0.2081736909323116
sg1
((lp3706
g114
ag51
atp3707
Rp3708
F0.031289910600255426
sg1
((lp3709
g66
ag3
atp3710
Rp3711
F0.004469987228607918
sg1
((lp3712
g135
atp3713
Rp3714
F0.17624521072796934
sg1
((lp3715
g51
ag74
atp3716
Rp3717
F0.06768837803320563
sg1
((lp3718
g74
ag62
atp3719
Rp3720
F0.12835249042145594
sg1
((lp3721
g21
ag354
atp3722
Rp3723
F0.037037037037037035
sg1
((lp3724
S'530286'
p3725
atp3726
Rp3727
F0.03959131545338442
sg1
((lp3728
g22
ag74
atp3729
Rp3730
F0.022988505747126436
sg1
((lp3731
g22
atp3732
Rp3733
F0.2720306513409962
sg1
((lp3734
g8
ag9
ag135
atp3735
Rp3736
F0.06896551724137931
sg1
((lp3737
S'55522'
p3738
atp3739
Rp3740
F0.10217113665389528
sg1
((lp3741
g41
ag135
atp3742
Rp3743
F0.17049808429118773
sg1
((lp3744
g10
ag151
atp3745
Rp3746
F0.027458492975734355
sg1
((lp3747
g20
ag88
atp3748
Rp3749
F0.03065134099616858
sg1
((lp3750
g84
ag279
ag74
atp3751
Rp3752
F0.13729246487867178
sg1
((lp3753
g51
ag88
atp3754
Rp3755
F0.12260536398467432
sg1
((lp3756
g21
ag4
atp3757
Rp3758
F0.0070242656449553
sg1
((lp3759
g50
ag15
atp3760
Rp3761
F0.019157088122605363
sg1
((lp3762
S'55326'
p3763
atp3764
Rp3765
F0.06257982120051085
sg1
((lp3766
g19
ag22
ag151
ag15
atp3767
Rp3768
F0.14623243933588762
sg1
((lp3769
g14
ag88
atp3770
Rp3771
F0.03065134099616858
sg1
((lp3772
S'55319'
p3773
atp3774
Rp3775
F0.016602809706257982
sg1
((lp3776
g41
ag118
atp3777
Rp3778
F0.18071519795657726
sg1
((lp3779
g21
ag20
ag30
ag22
atp3780
Rp3781
F0.19348659003831417
sg1
((lp3782
g62
ag151
atp3783
Rp3784
F0.028735632183908046
sg1
((lp3785
g66
ag21
atp3786
Rp3787
F0.001277139208173691
sg1
((lp3788
g200
ag135
atp3789
Rp3790
F0.008939974457215836
sg1
((lp3791
g20
ag21
ag22
ag15
atp3792
Rp3793
F0.17369093231162197
sg1
((lp3794
g41
ag84
atp3795
Rp3796
F0.08365261813537675
sg1
((lp3797
g50
ag67
atp3798
Rp3799
F0.0913154533844189
sg1
((lp3800
S'582665'
p3801
atp3802
Rp3803
F0.0140485312899106
sg1
((lp3804
g66
ag444
atp3805
Rp3806
F0.0
sg1
((lp3807
S'55027'
p3808
atp3809
Rp3810
F0.007662835249042145
sg1
((lp3811
g97
ag279
atp3812
Rp3813
F0.20561941251596424
sg1
((lp3814
g128
ag279
atp3815
Rp3816
F0.17624521072796934
sg1
((lp3817
g42
ag10
ag88
atp3818
Rp3819
F0.1206896551724138
sg1
((lp3820
g200
ag118
atp3821
Rp3822
F0.07471264367816093
sg1
((lp3823
g3
ag135
atp3824
Rp3825
F0.11749680715197956
sg1
((lp3826
S'53398'
p3827
atp3828
Rp3829
F0.09195402298850575
s.