(dp0
VAlgebra I
p1
(dp2
I2007
(lp3
I2
aI3
aI1
aI3
aI4
aI3
aI4
aI3
aI2
aI5
aI4
aI3
aI3
aI4
aI2
aI1
aI3
aI4
aI2
aI3
aI3
aI5
aI5
aI5
aI2
aI4
aI2
aI2
aI3
aI4
aI2
aI1
aI3
aI5
aI3
aI3
aI2
aI3
aI1
aI3
aI3
aI5
aI2
aI2
aI3
aI3
aI4
aI2
aI1
aI3
aI4
aI3
aI1
aI2
aI2
aI5
aI2
aI4
aI5
aI3
aI4
aI2
aI2
aI2
aI1
aI3
aI5
aI3
aI2
aI2
aI2
aI3
aI5
aI1
aI4
aI2
aI2
aI4
aI5
aI4
aI3
aI2
aI2
aI2
aI3
aI2
aI5
aI5
aI3
aI2
aI2
aI2
aI3
aI2
aI3
aI3
aI3
aI3
aI2
aI3
aI3
aI3
aI4
aI5
aI3
aI3
aI3
aI5
aI1
aI3
aI3
aI2
aI3
aI2
aI5
aI3
aI4
aI3
aI3
aI2
aI4
aI3
aI4
aI4
aI2
aI4
aI2
aI2
aI2
aI3
aI1
aI3
aI3
aI3
aI2
aI3
aI2
aI4
aI5
aI4
aI3
aI0
aI2
aI4
aI3
aI0
aI3
aI2
aI4
aI4
aI0
aI2
aI3
aI3
aI2
aI0
aI4
aI0
aI0
aI4
aI4
aI4
aI0
aI4
aI3
aI3
aI0
aI3
aI4
aI4
aI2
aI0
aI4
aI0
aI1
aI2
aI2
aI4
aI0
aI2
aI4
aI2
aI0
aI3
aI0
aI1
aI2
aI2
aI3
aI0
aI3
aI4
aI2
aI2
aI2
aI0
aI2
aI0
aI1
aI2
aI3
aI0
aI4
aI3
aI2
aI0
aI1
aI4
aI0
aI4
aI3
aI3
aI0
aI1
aI2
aI4
aI0
aI4
aI2
aI3
aI0
aI4
aI3
aI3
aI3
aI3
aI5
aI3
aI5
aI3
aI3
aI3
aI3
aI4
aI2
aI2
aI2
aI1
aI5
aI2
aI3
aI3
aI2
aI3
aI3
aI0
aI2
aI2
aI2
aI3
aI4
aI2
aI5
aI5
aI2
aI3
aI2
aI3
aI2
aI4
aI3
aI3
aI4
aI0
aI3
aI1
aI3
aI2
aI3
aI0
aI1
aI3
aI3
aI3
aI1
aI3
aI0
aI1
aI4
aI3
aI2
aI3
aI1
aI2
aI2
aI4
aI3
aI2
aI2
aI1
aI5
aI2
aI3
aI3
aI4
aI3
aI3
aI2
aI2
aI4
aI3
aI3
aI4
aI2
aI2
aI3
aI3
aI1
aI2
aI2
aI4
aI2
aI3
aI1
aI2
aI2
aI5
aI3
aI3
aI1
aI3
aI4
aI3
aI2
aI2
aI4
aI4
aI2
aI4
aI3
aI2
aI3
aI1
aI4
aI0
aI2
aI4
aI1
aI4
aI2
aI3
aI3
aI2
aI3
aI1
aI2
aI2
aI0
aI2
aI1
aI3
aI1
aI4
aI3
aI4
aI5
aI5
aI3
aI5
aI2
aI3
aI0
aI3
aI4
aI3
aI4
aI4
aI1
aI3
aI4
aI3
aI2
aI4
aI3
aI0
aI3
aI1
aI2
aI1
aI3
aI2
aI1
aI3
aI3
aI4
aI3
aI2
aI5
aI3
aI3
aI3
aI2
aI4
aI4
aI4
aI3
aI2
aI4
aI3
aI1
aI2
aI1
aI2
aI4
aI3
aI3
aI4
aI2
aI2
aI2
aI3
aI3
aI0
aI5
aI3
aI4
aI3
aI3
aI3
aI3
aI3
aI2
aI3
aI3
aI3
aI3
aI3
aI4
aI4
aI4
aI4
aI4
aI3
aI3
aI3
aI3
aI1
aI2
aI0
aI2
aI2
aI3
aI4
aI3
aI4
aI4
aI5
aI4
aI3
aI3
aI2
aI4
aI0
aI3
aI4
aI1
aI2
aI2
aI4
aI3
aI2
aI4
aI3
aI4
aI3
aI3
aI4
aI1
aI1
aI3
aI3
aI3
aI2
aI4
aI5
aI3
aI4
aI4
aI3
aI1
aI4
aI3
aI2
aI4
aI3
aI3
aI3
aI3
aI4
aI3
aI2
aI4
aI4
aI3
aI4
aI2
aI4
aI3
aI2
aI3
aI4
aI4
aI3
aI4
aI4
aI4
aI4
aI1
aI3
aI3
aI2
aI3
aI3
aI2
aI2
aI4
aI3
aI4
aI0
aI1
aI4
aI1
aI2
aI4
aI2
aI3
aI5
aI5
aI4
aI5
aI3
aI4
aI4
aI3
aI2
aI2
aI3
aI2
aI3
aI3
aI3
aI5
aI5
aI3
aI2
aI1
aI4
aI3
aI3
aI0
aI2
aI3
aI0
aI2
aI1
aI4
aI3
aI3
aI3
aI4
aI2
aI3
aI2
aI3
aI4
aI0
aI2
aI4
aI1
aI3
aI3
aI3
aI0
aI2
aI1
aI4
aI3
aI2
aI0
aI1
aI4
aI4
aI2
aI3
aI2
aI4
aI0
aI2
aI4
aI2
aI3
aI2
aI4
aI4
aI1
aI4
aI3
aI5
aI5
aI3
aI3
aI3
aI3
aI1
aI2
aI4
aI4
aI4
aI5
aI5
aI4
aI5
aI4
aI5
aI5
aI5
aI3
aI5
aI5
aI4
aI5
aI4
aI5
aI5
aI5
aI5
aI5
aI5
aI5
aI4
aI5
aI3
aI4
aI5
aI4
aI3
aI5
aI5
aI5
aI4
aI5
aI3
aI5
aI3
aI1
aI5
aI4
aI4
aI5
aI4
aI3
aI4
aI4
aI5
aI2
aI2
aI1
aI2
aI4
aI4
aI5
aI5
aI4
aI3
aI1
aI4
aI2
aI3
aI4
aI3
aI2
aI2
aI3
aI1
aI2
aI4
aI3
aI4
aI4
aI4
aI5
aI3
aI2
aI3
aI3
aI3
aI1
aI3
aI5
aI5
aI4
aI4
aI3
aI4
aI5
aI4
aI5
aI2
aI3
aI3
aI2
aI0
aI3
aI5
aI5
aI2
aI4
aI5
aI3
aI5
aI4
aI5
aI5
aI2
aI1
aI5
aI2
aI3
aI2
aI4
aI5
aI4
aI5
aI5
aI5
aI5
aI5
aI3
aI3
aI5
aI5
aI3
aI5
aI2
aI3
aI5
aI5
aI3
aI5
aI5
aI5
aI3
aI2
aI4
aI3
aI1
aI3
aI3
aI3
aI3
aI4
aI5
aI4
aI4
aI4
aI4
aI3
aI5
aI1
aI2
aI0
aI4
aI1
aI3
aI4
aI5
aI1
aI0
aI0
aI4
aI4
aI4
aI0
aI3
aI1
aI2
aI0
aI5
aI3
aI4
aI5
aI0
aI0
aI0
aI5
aI5
aI4
aI3
aI3
aI2
aI1
aI0
aI0
aI5
aI4
aI0
aI3
aI0
aI0
aI3
aI0
aI0
aI0
aI4
aI1
aI3
aI3
aI3
aI0
aI1
aI4
aI3
aI3
aI0
aI1
aI2
aI3
aI0
aI0
aI0
aI1
aI5
aI3
aI0
aI0
aI0
aI1
aI3
aI0
aI1
aI4
aI1
aI0
aI4
aI0
aI4
aI1
aI0
aI0
aI3
aI0
aI1
aI4
aI1
aI3
aI0
aI0
aI1
aI1
aI5
aI0
aI2
aI0
aI4
aI0
aI0
aI2
aI4
aI0
aI0
aI2
aI0
aI1
aI5
aI0
aI0
aI2
aI3
aI1
aI4
aI0
aI4
aI3
aI0
aI3
aI0
aI1
aI0
aI5
aI0
aI2
aI4
aI4
aI3
aI5
aI0
aI4
aI2
aI0
aI0
aI0
aI2
aI1
aI4
aI3
aI1
aI4
aI3
aI5
aI5
aI5
aI5
aI4
aI2
aI5
aI2
aI0
aI0
aI5
aI1
aI5
aI1
aI3
aI3
aI3
aI2
aI5
aI2
aI5
aI4
aI5
aI3
aI4
aI3
aI2
aI5
aI1
aI5
aI0
aI0
aI5
aI5
aI4
aI5
aI2
aI4
aI5
aI5
aI5
aI5
aI5
aI5
aI5
aI5
aI5
aI3
aI5
aI3
aI3
aI4
aI1
aI3
aI4
aI0
aI3
aI5
aI5
aI5
aI1
aI3
aI0
aI0
aI4
aI4
aI4
aI2
aI4
aI3
aI4
aI5
aI4
aI5
aI5
aI3
aI1
aI4
aI2
aI4
aI5
aI4
aI2
aI5
aI2
aI4
aI1
aI3
aI0
aI0
aI5
asI2008
(lp4
I3
aI5
aI3
aI2
aI3
aI0
aI3
aI2
aI2
aI5
aI1
aI3
aI4
aI1
aI4
aI4
aI4
aI3
aI3
aI3
aI5
aI5
aI4
aI5
aI5
aI5
aI5
aI3
aI4
aI1
aI3
aI5
aI4
aI5
aI5
aI3
aI1
aI5
aI3
aI4
aI4
aI4
aI4
aI4
aI5
aI2
aI1
aI3
aI1
aI3
aI4
aI2
aI1
aI4
aI3
aI3
aI2
aI2
aI3
aI2
aI4
aI5
aI5
aI3
aI3
aI3
aI3
aI2
aI2
aI3
aI2
aI3
aI3
aI2
aI3
aI4
aI3
aI4
aI0
aI5
aI5
aI5
aI4
aI5
aI5
aI2
aI0
aI3
aI4
aI4
aI2
aI3
aI1
aI2
aI2
aI3
aI3
aI4
aI3
aI3
aI2
aI4
aI1
aI4
aI5
aI5
aI5
aI1
aI0
aI3
aI1
aI1
aI1
aI5
aI4
aI4
aI3
aI4
aI3
aI2
aI2
aI5
aI3
aI5
aI0
aI5
aI3
aI2
aI5
aI0
aI0
aI2
aI1
aI3
aI3
aI3
aI3
aI3
aI3
aI4
aI3
aI3
aI0
aI3
aI3
aI2
aI3
aI4
aI3
aI0
aI0
aI3
aI4
aI4
aI3
aI3
aI4
aI5
aI3
aI5
aI5
aI5
aI2
aI3
aI1
aI3
aI4
aI4
aI5
aI4
aI5
aI3
aI3
aI5
aI3
aI5
aI3
aI4
aI3
aI2
aI0
aI2
aI3
aI2
aI0
aI3
aI2
aI2
aI0
aI3
aI0
aI2
aI2
aI4
aI0
aI4
aI1
aI0
aI0
aI1
aI1
aI0
aI3
aI1
aI1
aI5
aI1
aI0
aI4
aI3
aI3
aI3
aI4
aI0
aI5
aI0
aI1
aI3
aI0
aI0
aI2
aI2
aI1
aI1
aI0
aI1
aI3
aI3
aI2
aI4
aI1
aI0
aI2
aI0
aI1
aI3
aI0
aI2
aI3
aI4
aI2
aI0
aI3
aI3
aI2
aI2
aI0
aI1
aI3
aI0
aI1
aI2
aI0
aI0
aI1
aI0
aI4
aI1
aI1
aI3
aI2
aI0
aI1
aI2
aI3
aI1
aI3
aI2
aI4
aI4
aI2
aI2
aI4
aI1
aI0
aI0
aI2
aI0
aI1
aI1
aI2
aI4
aI1
aI4
aI2
aI2
aI1
aI4
aI3
aI4
aI2
aI4
aI4
aI4
aI4
aI4
aI3
aI2
aI3
aI3
aI3
aI2
aI4
aI3
aI2
aI4
aI2
aI3
aI3
aI2
aI1
aI3
aI4
aI2
aI2
aI4
aI0
aI3
aI3
aI4
aI3
aI0
aI1
aI0
aI1
aI5
aI5
aI5
aI4
aI5
aI5
aI5
aI5
aI3
aI4
aI2
aI4
aI4
aI3
aI5
aI3
aI4
aI2
aI2
aI0
aI4
aI3
aI2
aI4
aI4
aI4
aI0
aI3
aI4
aI2
aI5
aI3
aI5
aI3
aI2
aI4
aI2
aI5
aI5
aI3
aI3
aI3
aI2
aI4
aI2
aI2
aI3
aI0
aI4
aI4
aI5
aI1
aI1
aI5
aI4
aI0
aI4
aI1
aI1
aI3
aI4
aI3
aI5
aI3
aI3
aI0
aI0
aI3
aI2
aI1
aI3
aI5
aI5
aI5
aI5
aI2
aI4
aI5
aI3
aI4
aI5
aI5
aI5
aI4
aI5
aI5
aI5
aI3
aI0
aI3
aI1
aI3
aI0
aI2
aI5
aI4
aI2
aI0
aI3
aI0
aI3
aI0
aI3
aI3
aI3
aI3
aI1
aI2
aI4
aI2
aI3
aI2
aI3
aI3
aI0
aI3
aI1
aI1
aI3
aI2
aI1
aI1
aI3
aI4
aI3
aI4
aI3
aI2
aI2
aI2
aI3
aI2
aI3
aI4
aI0
aI2
aI2
aI2
aI2
aI2
aI3
aI0
aI3
aI4
aI3
aI5
aI2
aI5
aI5
aI3
aI5
aI3
aI3
aI5
aI5
aI5
aI2
aI4
aI4
aI5
aI3
aI3
aI5
aI2
aI4
aI4
aI2
aI3
aI4
aI4
aI4
aI3
aI3
aI0
aI0
aI2
aI0
aI3
aI2
aI1
aI4
aI4
aI4
aI3
aI0
aI3
aI4
aI3
aI2
aI1
aI3
aI3
aI3
aI3
aI4
aI3
aI2
aI1
aI3
aI2
aI3
aI2
aI3
aI3
aI4
aI3
aI5
aI2
aI3
aI5
aI5
aI5
aI3
aI5
aI1
aI3
aI3
aI2
aI5
aI2
aI5
aI2
aI0
aI0
aI5
aI5
aI3
aI3
aI2
aI4
aI5
aI5
aI5
aI5
aI2
aI4
aI4
aI5
aI4
aI0
aI5
aI5
aI3
aI3
aI2
aI3
aI2
aI4
aI3
aI2
aI2
aI1
aI3
aI3
aI4
aI3
aI2
aI3
aI2
aI5
aI0
aI5
aI3
aI3
aI2
aI4
aI4
aI3
aI1
aI4
aI3
aI2
aI1
aI1
aI2
aI1
aI2
aI0
aI2
aI4
aI4
aI3
aI3
aI3
aI3
aI4
aI5
aI0
aI3
aI3
aI3
aI5
aI2
aI4
aI3
aI3
aI4
aI5
aI1
aI4
aI4
aI1
aI4
aI5
aI2
aI3
aI0
aI2
aI4
aI5
aI4
aI2
aI3
aI2
aI5
aI3
aI4
aI4
aI2
aI0
aI1
aI3
aI5
aI4
aI4
aI4
aI3
aI3
aI2
aI2
aI2
aI3
aI3
aI4
aI3
aI4
aI4
aI4
aI3
aI0
aI0
aI3
aI0
aI5
aI4
aI3
aI5
aI2
aI3
aI4
aI2
aI3
aI3
aI4
aI4
aI2
aI4
aI5
aI0
aI3
aI2
aI1
aI4
aI2
aI0
aI1
aI3
aI2
aI5
aI5
aI5
aI4
aI4
aI2
aI3
aI4
aI4
aI3
aI0
aI0
aI1
aI3
aI3
aI3
aI4
aI4
aI4
aI0
aI4
aI4
aI4
aI3
aI2
aI3
aI2
aI1
aI1
aI2
aI1
aI4
aI3
aI0
aI3
aI3
aI4
aI4
aI4
aI3
aI5
aI4
aI4
aI3
aI2
aI4
aI1
aI4
aI2
aI3
aI1
aI2
aI3
aI4
aI2
aI3
aI4
aI2
aI0
aI0
aI2
aI5
aI4
aI3
aI4
aI5
aI4
aI4
aI5
aI4
aI3
aI5
aI3
aI4
aI5
aI2
aI3
aI2
aI4
aI5
aI3
aI3
aI5
aI4
aI5
aI5
aI5
aI4
aI3
aI3
aI2
aI4
aI1
aI5
aI2
aI1
aI3
aI2
aI0
aI4
aI3
aI1
aI3
aI3
aI3
aI3
aI5
aI4
aI1
aI5
aI1
aI5
aI3
aI2
aI2
aI4
aI5
aI5
aI3
aI2
aI1
aI2
aI1
aI4
aI2
aI4
aI1
aI5
aI1
aI5
aI4
aI3
aI0
aI3
aI3
aI3
aI1
aI5
aI3
aI3
aI1
aI1
aI1
aI1
aI3
aI5
aI4
aI2
aI4
aI2
aI2
aI3
aI0
aI5
aI4
aI3
aI3
aI3
aI4
aI3
aI1
aI4
aI0
aI1
aI4
aI1
aI3
aI2
aI3
aI1
aI2
aI2
aI3
aI2
aI1
aI1
aI4
aI1
aI1
aI0
aI2
aI1
aI0
aI2
aI5
aI3
aI1
aI5
aI1
aI0
aI4
aI4
aI3
aI2
aI0
aI3
aI3
aI2
aI2
aI4
aI1
aI2
aI5
aI4
aI3
aI2
aI0
aI1
aI0
aI1
aI0
aI0
aI0
aI5
aI4
aI1
aI4
aI0
aI0
aI0
aI0
aI0
aI3
aI1
aI1
aI2
aI0
aI0
aI3
aI1
aI4
aI0
aI4
aI5
aI2
aI1
aI0
aI4
aI1
aI2
aI5
aI5
aI1
aI0
aI0
aI0
aI0
aI0
aI3
aI3
aI0
aI1
aI0
aI0
aI0
aI0
aI1
aI0
aI0
aI4
aI0
aI3
aI3
aI5
aI2
aI4
aI4
aI2
aI4
aI3
aI4
aI4
aI3
aI0
aI1
aI0
aI5
aI0
aI0
aI4
aI1
aI0
aI0
aI0
aI3
aI4
aI3
aI1
aI0
aI0
aI1
aI2
aI2
aI2
aI0
aI1
aI5
aI3
aI3
aI0
aI4
aI0
aI3
aI2
aI3
aI3
aI4
aI5
aI5
aI1
aI2
aI2
aI3
aI0
aI4
aI4
aI2
aI3
aI4
aI4
aI4
aI5
aI4
aI4
aI5
aI5
aI5
aI4
aI5
aI4
aI5
aI5
aI4
aI4
aI4
aI3
aI4
aI2
aI0
aI3
aI2
aI0
aI1
aI1
aI1
aI4
aI1
aI4
aI1
aI2
aI0
aI5
aI2
aI2
aI2
aI5
aI4
aI5
aI1
aI3
aI5
aI0
aI0
aI4
aI1
aI1
aI4
aI3
aI4
aI2
aI1
aI1
aI0
aI2
aI1
aI4
aI5
aI4
aI5
aI4
aI5
aI5
aI5
aI4
aI5
aI5
aI5
aI5
aI4
aI0
aI1
aI0
aI0
aI0
aI3
aI2
aI5
aI2
aI0
aI3
aI4
aI0
aI3
aI0
aI4
aI4
aI5
aI4
aI1
aI2
aI0
aI1
aI3
aI4
aI0
aI2
aI2
aI2
aI5
aI1
aI0
aI0
aI5
aI4
aI3
aI4
aI4
aI5
aI5
aI5
aI4
aI4
aI3
aI5
aI4
aI3
aI4
aI5
aI4
aI5
aI1
aI0
aI4
aI4
aI3
aI0
aI5
aI3
aI3
aI2
aI5
aI3
aI3
aI4
aI5
aI5
aI4
aI4
aI4
aI4
aI2
aI5
aI5
aI5
aI4
aI3
aI5
aI5
aI5
aI3
aI4
aI2
aI5
aI2
aI2
aI0
aI4
aI1
aI1
aI3
aI5
aI5
aI2
aI5
aI5
aI5
aI4
aI4
aI3
aI2
aI4
aI2
aI4
aI4
aI5
aI3
aI4
aI5
aI2
aI2
aI3
aI2
aI5
aI3
aI4
aI3
aI5
aI2
aI4
aI2
aI3
aI5
aI3
aI4
aI4
aI5
aI4
aI3
aI3
aI2
aI5
aI3
aI2
aI2
aI3
aI3
aI2
aI3
aI3
aI4
aI1
aI4
aI2
aI5
aI4
aI4
aI3
aI2
aI4
aI1
aI2
aI1
aI5
aI5
aI3
aI2
aI4
aI2
aI4
aI1
aI5
aI4
aI3
aI2
aI3
aI3
aI3
aI2
aI5
aI5
aI5
aI3
aI3
aI1
aI2
aI4
aI0
aI3
aI2
aI3
aI4
aI3
aI1
aI0
aI3
aI3
aI2
aI0
aI3
aI2
aI2
aI2
aI5
aI1
aI2
aI3
aI4
aI1
aI0
aI4
aI5
aI0
aI2
aI2
aI0
aI4
aI2
aI3
aI4
aI3
aI0
aI3
aI2
aI0
aI4
aI3
aI3
aI3
aI0
aI2
aI3
aI4
aI0
aI3
aI3
aI3
aI3
aI0
aI2
aI3
aI1
aI0
aI3
aI4
aI2
aI5
aI3
aI4
aI3
aI4
aI1
aI2
aI2
aI3
aI4
aI3
aI3
aI0
aI0
aI2
aI4
aI1
aI3
aI3
aI3
aI3
aI3
aI2
aI2
aI2
aI3
aI1
aI2
aI2
aI4
aI2
aI4
aI4
aI1
aI3
aI3
aI3
aI4
aI3
aI2
aI3
aI2
aI3
aI1
aI3
aI3
aI4
aI2
aI2
aI2
aI2
aI2
aI4
aI5
aI3
aI3
aI2
aI4
aI3
aI0
aI4
aI5
aI1
aI4
aI3
aI2
aI2
aI3
aI2
aI3
aI1
aI4
aI4
aI2
aI2
aI3
aI0
aI5
aI3
aI4
aI1
aI0
aI3
aI3
aI4
aI0
aI4
aI3
aI4
aI0
aI0
aI2
aI0
aI2
aI3
aI2
aI1
aI2
aI3
aI1
aI2
aI0
aI4
aI4
aI3
aI3
aI2
aI3
aI0
aI2
aI0
aI1
aI4
aI4
aI0
aI2
aI3
aI3
aI3
aI4
aI3
aI3
aI0
aI3
aI2
aI3
aI3
aI2
aI1
aI4
aI2
aI0
aI2
aI4
aI3
aI3
aI2
aI3
aI0
aI2
aI4
aI2
aI4
aI3
aI1
aI2
aI2
aI0
aI3
aI2
aI3
aI4
aI2
aI0
aI1
aI3
aI0
aI4
aI1
aI0
aI2
aI3
aI3
aI0
aI4
aI4
aI2
aI3
aI2
aI0
aI3
aI4
aI2
aI3
aI0
aI3
aI3
aI3
aI0
aI2
aI4
aI0
aI4
aI3
aI0
aI2
aI4
aI3
aI2
aI0
aI1
aI3
aI4
aI0
aI2
aI2
aI4
aI4
aI3
aI4
aI3
aI5
aI2
aI4
aI0
aI2
aI4
aI1
aI4
aI3
aI3
aI2
aI4
aI3
aI5
aI3
aI3
aI4
aI2
aI3
aI2
aI4
aI4
aI3
aI4
aI4
aI4
aI1
aI4
aI4
aI4
aI2
aI4
aI2
aI2
aI4
aI3
aI1
aI2
aI4
aI3
aI0
aI3
aI3
aI1
aI3
aI3
aI2
aI4
aI4
aI3
aI2
aI3
aI1
aI2
aI3
aI4
aI1
aI2
aI4
aI3
aI4
aI3
aI3
aI2
aI3
aI2
aI4
aI4
aI3
aI3
aI1
aI1
aI4
aI1
aI2
aI3
aI3
aI3
aI1
aI3
aI2
aI2
aI2
aI2
aI2
aI3
aI3
aI2
aI4
aI3
aI1
aI3
aI3
aI1
aI0
aI2
aI4
aI2
aI3
aI4
aI3
aI3
aI2
aI2
aI3
aI3
aI4
aI4
aI4
aI3
aI1
aI3
aI1
aI4
aI4
aI3
aI1
aI3
aI3
aI2
aI3
aI2
aI2
aI2
aI2
aI3
aI2
aI1
aI2
aI4
aI4
aI2
aI2
aI3
aI4
aI2
aI3
aI3
aI3
aI3
aI3
aI1
aI3
aI2
aI2
aI5
aI3
aI4
aI3
aI3
aI3
aI1
aI3
aI0
aI1
aI2
aI5
aI2
aI4
aI4
aI3
aI4
aI3
aI3
aI2
aI2
aI2
aI2
aI3
aI1
aI3
aI3
aI3
aI5
aI4
aI3
aI2
aI4
aI3
aI2
aI4
aI4
aI3
aI0
aI0
aI2
aI3
aI2
aI2
aI4
aI3
aI1
aI3
aI3
aI3
aI3
aI2
aI5
aI2
aI2
aI3
aI3
aI3
aI3
aI3
aI4
aI3
aI3
aI2
aI4
aI1
aI3
aI3
aI4
aI5
aI3
aI3
aI1
aI3
aI3
aI4
aI2
aI3
aI2
aI3
aI3
aI2
aI4
aI3
aI4
aI3
aI4
aI4
aI5
aI0
aI0
aI2
aI5
aI5
aI2
aI2
aI0
aI3
aI1
aI4
aI5
aI4
aI5
aI4
aI3
aI4
aI5
aI2
aI0
aI2
aI5
aI3
aI2
aI1
aI3
aI1
aI5
aI3
aI5
aI2
aI5
aI4
aI2
aI5
aI2
aI5
aI4
aI5
aI5
aI2
aI3
aI4
aI1
aI5
aI4
aI3
aI5
aI3
aI3
aI2
aI4
aI4
aI3
aI3
aI5
aI5
aI1
aI5
aI4
aI5
aI2
aI5
aI5
aI2
aI4
aI3
aI2
aI5
aI4
aI3
aI4
aI4
aI5
aI2
aI5
aI3
aI1
aI3
aI3
aI1
aI3
aI4
aI2
aI2
aI3
aI4
aI2
aI4
aI5
aI3
aI2
aI0
aI2
aI4
aI4
aI3
aI3
aI2
aI1
aI2
aI1
aI2
aI1
aI5
aI3
aI3
aI3
aI2
aI0
aI0
aI4
aI5
aI2
aI3
aI4
aI5
aI3
aI5
aI4
aI5
aI5
aI5
aI2
aI5
aI3
aI4
aI5
aI5
aI2
aI5
aI2
aI5
aI5
aI2
aI3
aI5
aI2
aI2
aI4
aI5
aI3
aI3
aI0
aI3
aI5
aI0
aI0
aI4
aI5
aI0
aI0
aI5
aI4
aI3
aI0
aI1
aI3
aI3
aI0
aI5
aI0
aI5
aI5
aI0
aI0
aI3
aI5
aI5
aI5
aI0
aI0
aI1
aI4
aI3
aI3
aI4
aI5
aI0
aI0
aI2
aI4
aI2
aI5
aI4
aI4
aI3
aI5
aI1
aI4
aI4
aI1
aI2
aI0
aI3
aI4
aI4
aI3
aI1
aI0
aI2
aI1
aI3
aI5
aI5
aI5
aI5
aI4
aI5
aI3
aI5
aI2
aI5
aI1
aI2
aI5
aI4
aI2
aI3
aI0
aI4
aI5
aI3
aI4
aI5
aI5
aI4
aI0
aI3
aI1
aI1
aI4
aI3
aI5
aI3
aI1
aI1
aI3
aI5
aI4
aI4
aI5
aI4
aI5
aI4
aI5
aI5
aI5
aI0
aI4
aI4
aI5
aI5
aI4
aI3
aI2
aI4
aI4
aI5
aI5
aI4
aI3
aI1
aI4
aI3
aI4
aI5
aI5
aI5
aI4
aI5
aI3
aI5
aI2
aI4
aI2
aI1
aI2
aI3
aI2
aI2
aI1
aI1
aI3
aI4
aI3
aI1
aI5
aI0
aI0
aI2
aI2
aI2
aI5
aI3
aI2
aI5
aI4
aI5
aI1
aI1
aI3
aI5
aI5
aI5
aI0
aI5
aI0
aI3
aI5
aI5
aI5
aI5
aI4
aI5
aI4
aI5
aI3
aI4
aI4
aI5
aI4
aI5
aI5
aI2
aI5
aI3
aI4
aI5
aI5
aI5
aI3
aI1
aI3
aI2
aI4
aI3
aI1
aI3
aI2
aI5
aI3
aI4
aI4
aI2
aI5
aI2
aI5
aI2
aI5
aI4
aI5
aI1
aI2
aI2
aI1
aI3
aI2
aI4
aI4
aI4
aI4
aI2
aI4
aI3
aI5
aI5
aI3
aI2
aI3
aI3
aI0
aI1
aI5
aI3
aI4
aI5
aI5
aI5
aI2
aI3
aI4
aI4
aI5
aI5
aI4
aI5
aI2
aI3
aI3
aI4
aI5
aI4
aI3
aI3
aI4
aI4
aI4
aI5
aI1
aI2
aI3
aI1
aI2
aI5
aI3
aI3
aI4
aI4
aI5
aI4
aI3
aI3
aI4
aI5
aI5
aI3
aI3
aI4
aI4
aI4
aI5
aI3
aI2
aI0
aI4
aI1
aI4
aI5
aI3
aI4
aI3
aI2
aI2
aI2
aI2
aI2
aI0
aI4
aI3
aI2
aI5
aI4
aI4
aI5
aI4
aI3
aI5
aI0
aI3
aI1
aI2
aI3
aI0
aI2
aI1
aI0
aI4
aI4
aI3
aI5
aI5
aI3
aI4
aI3
aI3
aI4
aI4
aI5
aI3
aI3
aI5
aI3
aI5
aI3
aI2
aI4
aI5
aI5
aI5
aI5
aI2
aI4
aI2
aI3
aI3
aI5
aI5
aI3
aI4
aI5
aI5
aI2
aI3
aI5
aI5
aI2
aI5
aI4
aI3
aI2
aI5
aI2
aI2
aI3
aI4
aI1
aI5
aI5
aI3
aI0
aI0
aI5
aI2
aI5
aI5
aI2
aI0
aI0
aI5
aI3
aI4
aI5
aI5
aI4
aI5
aI4
aI3
aI5
aI0
aI3
aI5
aI4
aI1
aI5
aI4
aI5
aI3
aI5
aI4
aI1
aI3
aI5
aI4
aI5
aI1
aI0
aI4
aI1
aI4
aI4
aI5
aI2
aI5
aI5
aI5
aI1
aI3
aI4
aI1
aI0
aI2
aI2
aI5
aI2
aI4
aI3
aI3
aI3
aI4
aI5
aI4
aI3
aI4
aI5
aI2
aI0
aI3
aI1
aI1
aI1
aI5
aI5
aI0
aI2
aI2
aI3
aI0
aI4
aI5
aI0
aI5
aI5
aI0
aI5
aI5
aI4
aI0
aI5
aI4
aI0
aI3
aI0
aI0
aI0
aI4
aI4
aI3
aI0
aI5
aI4
aI0
aI3
aI4
aI5
aI5
aI3
aI0
aI0
aI4
aI5
aI4
aI4
aI3
aI5
aI5
aI3
aI3
aI5
aI3
aI5
aI5
aI5
aI2
aI1
aI2
asI2009
(lp5
I1
aI2
aI1
aI1
aI3
aI5
aI5
aI4
aI2
aI4
aI5
aI5
aI4
aI5
aI3
aI3
aI1
aI5
aI1
aI4
aI4
aI5
aI2
aI2
aI4
aI2
aI1
aI4
aI2
aI3
aI1
aI2
aI1
aI3
aI5
aI2
aI2
aI5
aI5
aI4
aI3
aI5
aI4
aI0
aI0
aI4
aI1
aI3
aI3
aI4
aI2
aI3
aI4
aI1
aI2
aI2
aI4
aI2
aI2
aI4
aI2
aI5
aI3
aI4
aI0
aI1
aI3
aI3
aI2
aI0
aI4
aI0
aI3
aI2
aI3
aI4
aI5
aI2
aI3
aI5
aI5
aI4
aI5
aI5
aI5
aI4
aI4
aI5
aI5
aI5
aI2
aI2
aI1
aI1
aI4
aI1
aI3
aI0
aI5
aI5
aI5
aI4
aI5
aI3
aI5
aI2
aI3
aI5
aI0
aI4
aI1
aI0
aI4
aI3
aI5
aI3
aI1
aI3
aI1
aI2
aI3
aI1
aI3
aI0
aI3
aI0
aI1
aI4
aI1
aI0
aI2
aI2
aI3
aI5
aI2
aI1
aI5
aI3
aI1
aI1
aI3
aI3
aI4
aI2
aI5
aI5
aI5
aI5
aI3
aI3
aI1
aI5
aI3
aI0
aI2
aI4
aI2
aI2
aI2
aI2
aI0
aI0
aI5
aI0
aI4
aI0
aI2
aI3
aI2
aI3
aI1
aI0
aI0
aI2
aI4
aI1
aI4
aI1
aI4
aI0
aI3
aI4
aI2
aI0
aI3
aI3
aI0
aI3
aI3
aI0
aI3
aI4
aI3
aI3
aI4
aI3
aI3
aI2
aI2
aI3
aI3
aI5
aI5
aI3
aI3
aI2
aI3
aI1
aI5
aI2
aI4
aI3
aI3
aI2
aI5
aI5
aI0
aI4
aI3
aI3
aI2
aI5
aI4
aI4
aI2
aI3
aI2
aI2
aI4
aI1
aI5
aI1
aI4
aI3
aI1
aI2
aI3
aI0
aI2
aI4
aI2
aI3
aI1
aI1
aI4
aI4
aI3
aI5
aI4
aI4
aI5
aI5
aI3
aI5
aI2
aI4
aI1
aI4
aI5
aI1
aI0
aI2
aI3
aI3
aI4
aI3
aI5
aI4
aI5
aI3
aI1
aI0
aI2
aI2
aI5
aI3
aI5
aI2
aI1
aI4
aI5
aI3
aI3
aI2
aI2
aI5
aI2
aI4
aI5
aI3
aI1
aI0
aI2
aI2
aI2
aI5
aI1
aI4
aI1
aI4
aI3
aI4
aI2
aI2
aI5
aI3
aI4
aI5
aI3
aI0
aI5
aI5
aI4
aI2
aI2
aI3
aI1
aI4
aI5
aI5
aI3
aI3
aI4
aI5
aI5
aI4
aI5
aI4
aI1
aI0
aI5
aI5
aI5
aI5
aI5
aI3
aI3
aI3
aI3
aI5
aI2
aI4
aI2
aI0
aI1
aI1
aI4
aI2
aI3
aI2
aI2
aI4
aI2
aI1
aI0
aI0
aI0
aI4
aI2
aI3
aI3
aI5
aI2
aI4
aI1
aI3
aI3
aI1
aI3
aI3
aI4
aI5
aI4
aI3
aI2
aI5
aI4
aI5
aI1
aI4
aI3
aI2
aI4
aI5
aI3
aI4
aI5
aI2
aI4
aI5
aI2
aI3
aI4
aI4
aI5
aI4
aI5
aI3
aI5
aI5
aI3
aI3
aI0
aI3
aI4
aI2
aI1
aI4
aI0
aI5
aI2
aI3
aI4
aI5
aI5
aI5
aI4
aI0
aI4
aI1
aI3
aI1
aI3
aI1
aI0
aI0
aI3
aI3
aI1
aI3
aI0
aI2
aI4
aI4
aI3
aI4
aI3
aI1
aI5
aI3
aI4
aI5
aI4
aI0
aI5
aI5
aI3
aI5
aI4
aI3
aI3
aI3
aI2
aI3
aI2
aI2
aI4
aI5
aI5
aI5
aI4
aI4
aI5
aI5
aI5
aI5
aI0
aI4
aI4
aI5
aI0
aI4
aI5
aI5
aI2
aI0
aI4
aI4
aI3
aI1
aI3
aI4
aI3
aI2
aI2
aI1
aI2
aI1
aI4
aI1
aI5
aI5
aI2
aI3
aI1
aI0
aI0
aI3
aI4
aI2
aI1
aI4
aI4
aI1
aI2
aI4
aI2
aI3
aI4
aI4
aI3
aI3
aI4
aI4
aI3
aI4
aI3
aI5
aI2
aI4
aI5
aI4
aI1
aI4
aI2
aI0
aI1
aI2
aI2
aI0
aI0
aI3
aI4
aI2
aI4
aI0
aI3
aI4
aI2
aI4
aI4
aI4
aI0
aI5
aI3
aI4
aI0
aI2
aI5
aI2
aI3
aI2
aI2
aI3
aI4
aI4
aI3
aI2
aI2
aI3
aI0
aI4
aI3
aI1
aI3
aI3
aI3
aI5
aI2
aI2
aI4
aI3
aI3
aI2
aI0
aI4
aI5
aI3
aI2
aI3
aI3
aI3
aI0
aI4
aI5
aI5
aI3
aI2
aI5
aI3
aI5
aI4
aI3
aI0
aI0
aI2
aI0
aI4
aI2
aI5
aI5
aI3
aI1
aI0
aI4
aI3
aI5
aI4
aI4
aI3
aI3
aI4
aI4
aI5
aI5
aI5
aI4
aI3
aI4
aI3
aI1
aI1
aI3
aI5
aI3
aI1
aI5
aI1
aI5
aI5
aI3
aI4
aI4
aI3
aI4
aI4
aI3
aI3
aI3
aI4
aI3
aI5
aI3
aI4
aI5
aI0
aI0
aI4
aI3
aI2
aI3
aI0
aI3
aI5
aI4
aI2
aI3
aI0
aI2
aI1
aI2
aI3
aI5
aI2
aI5
aI1
aI3
aI0
aI0
aI2
aI3
aI1
aI1
aI2
aI0
aI0
aI0
aI2
aI4
aI0
aI4
aI0
aI0
aI0
aI3
aI3
aI0
aI0
aI4
aI4
aI5
aI4
aI3
aI5
aI1
aI2
aI1
aI0
aI0
aI0
aI0
aI2
aI0
aI5
aI3
aI1
aI5
aI0
aI0
aI0
aI0
aI2
aI0
aI0
aI2
aI4
aI3
aI4
aI3
aI4
aI0
aI2
aI0
aI4
aI0
aI1
aI1
aI0
aI3
aI4
aI1
aI0
aI2
aI4
aI2
aI1
aI2
aI4
aI1
aI5
aI0
aI3
aI5
aI0
aI1
aI1
aI5
aI4
aI1
aI3
aI1
aI2
aI5
aI5
aI4
aI4
aI5
aI5
aI5
aI5
aI2
aI5
aI5
aI4
aI1
aI4
aI5
aI0
aI4
aI2
aI3
aI4
aI5
aI2
aI2
aI4
aI1
aI3
aI3
aI1
aI0
aI0
aI0
aI1
aI0
aI4
aI3
aI3
aI2
aI4
aI0
aI2
aI0
aI4
aI1
aI3
aI0
aI0
aI2
aI3
aI0
aI0
aI1
aI5
aI5
aI3
aI5
aI0
aI2
aI4
aI1
aI5
aI5
aI4
aI2
aI4
aI4
aI5
aI3
aI5
aI4
aI3
aI1
aI5
aI5
aI0
aI4
aI3
aI4
aI0
aI2
aI2
aI0
aI0
aI1
aI4
aI2
aI1
aI0
aI3
aI4
aI3
aI0
aI0
aI5
aI5
aI3
aI4
aI0
aI4
aI4
aI5
aI2
aI1
aI3
aI0
aI3
aI0
aI4
aI1
aI3
aI2
aI1
aI2
aI3
aI0
aI1
aI1
aI0
aI4
aI0
aI4
aI1
aI5
aI1
aI1
aI0
aI0
aI2
aI4
aI2
aI5
aI1
aI2
aI5
aI4
aI5
aI5
aI4
aI4
aI1
aI3
aI4
aI5
aI4
aI3
aI5
aI0
aI2
aI0
aI4
aI1
aI5
aI5
aI1
aI2
aI5
aI3
aI3
aI4
aI3
aI3
aI2
aI4
aI3
aI5
aI2
aI0
aI4
aI4
aI5
aI4
aI4
aI0
aI0
aI3
aI3
aI3
aI3
aI2
aI4
aI1
aI3
aI1
aI3
aI5
aI3
aI4
aI4
aI5
aI3
aI2
aI3
aI3
aI5
aI3
aI1
aI4
aI5
aI4
aI2
aI3
aI3
aI5
aI2
aI1
aI2
aI0
aI4
aI2
aI3
aI5
aI5
aI3
aI3
aI2
aI4
aI3
aI5
aI2
aI0
aI5
aI5
aI4
aI4
aI2
aI4
aI3
aI4
aI2
aI1
aI4
aI4
aI2
aI3
aI4
aI3
aI0
aI3
aI0
aI3
aI1
aI0
aI0
aI1
aI2
aI3
aI4
aI0
aI2
aI0
aI1
aI0
aI0
aI4
aI2
aI2
aI2
aI2
aI1
aI3
aI2
aI2
aI2
aI2
aI3
aI1
aI4
aI3
aI1
aI1
aI2
aI3
aI4
aI2
aI3
aI3
aI5
aI4
aI5
aI4
aI5
aI5
aI3
aI2
aI4
aI2
aI3
aI3
aI5
aI2
aI4
aI3
aI5
aI0
aI0
aI2
aI1
aI1
aI1
aI2
aI1
aI4
aI3
aI4
aI3
aI2
aI3
aI3
aI2
aI1
aI3
aI2
aI3
aI0
aI4
aI4
aI4
aI5
aI2
aI0
aI4
aI3
aI4
aI2
aI0
aI1
aI0
aI2
aI2
aI3
aI2
aI5
aI4
aI1
aI0
aI4
aI0
aI2
aI0
aI1
aI4
aI3
aI1
aI0
aI0
aI0
aI3
aI2
aI2
aI3
aI0
aI2
aI3
aI5
aI5
aI4
aI2
aI2
aI2
aI3
aI3
aI2
aI2
aI1
aI4
aI2
aI4
aI2
aI3
aI4
aI1
aI1
aI3
aI3
aI4
aI4
aI0
aI0
aI3
aI2
aI2
aI3
aI0
aI0
aI3
aI1
aI0
aI3
aI2
aI4
aI2
aI3
aI1
aI4
aI3
aI3
aI3
aI3
aI3
aI2
aI0
aI0
aI0
aI3
aI2
aI2
aI4
aI0
aI0
aI3
aI3
aI4
aI5
aI3
aI0
aI1
aI1
aI2
aI0
aI0
aI4
aI0
aI3
aI0
aI3
aI3
aI3
aI1
aI0
aI0
aI3
aI0
aI3
aI3
aI0
aI2
aI0
aI3
aI2
aI3
aI2
aI0
aI2
aI0
aI0
aI3
aI4
aI5
aI5
aI2
aI2
aI0
aI4
aI2
aI0
aI5
aI3
aI3
aI0
aI2
aI4
aI3
aI3
aI3
aI3
aI0
aI2
aI4
aI3
aI5
aI3
aI3
aI3
aI3
aI4
aI4
aI5
aI3
aI0
aI2
aI3
aI4
aI3
aI2
aI2
aI5
aI3
aI2
aI4
aI3
aI3
aI3
aI4
aI3
aI2
aI3
aI2
aI1
aI5
aI3
aI1
aI0
aI2
aI3
aI3
aI0
aI0
aI4
aI2
aI3
aI3
aI0
aI3
aI2
aI3
aI1
aI3
aI3
aI3
aI4
aI4
aI4
aI3
aI3
aI3
aI3
aI4
aI4
aI5
aI3
aI3
aI3
aI3
aI2
aI4
aI4
aI3
aI3
aI2
aI2
aI0
aI4
aI1
aI3
aI3
aI4
aI3
aI4
aI4
aI3
aI5
aI3
aI3
aI4
aI2
aI0
aI4
aI3
aI3
aI2
aI4
aI2
aI3
aI5
aI4
aI5
aI5
aI2
aI3
aI4
aI1
aI3
aI0
aI4
aI4
aI3
aI2
aI4
aI3
aI2
aI2
aI2
aI2
aI3
aI2
aI0
aI2
aI4
aI2
aI3
aI3
aI3
aI4
aI4
aI4
aI4
aI1
aI5
aI5
aI4
aI2
aI2
aI3
aI0
aI4
aI3
aI3
aI4
aI4
aI2
aI5
aI5
aI4
aI4
aI3
aI3
aI2
aI4
aI3
aI3
aI5
aI5
aI5
aI4
aI4
aI3
aI3
aI1
aI3
aI1
aI3
aI0
aI3
aI4
aI4
aI3
aI4
aI4
aI2
aI4
aI3
aI2
aI4
aI4
aI3
aI3
aI4
aI3
aI0
aI4
aI3
aI0
aI0
aI0
aI1
aI0
aI4
aI1
aI3
aI2
aI0
aI1
aI3
aI2
aI2
aI0
aI4
aI0
aI2
aI2
aI2
aI3
aI4
aI1
aI4
aI5
aI5
aI4
aI5
aI2
aI2
aI1
aI2
aI4
aI5
aI3
aI2
aI5
aI4
aI5
aI5
aI5
aI1
aI4
aI1
aI3
aI0
aI4
aI2
aI3
aI0
aI5
aI0
aI4
aI2
aI5
aI3
aI4
aI5
aI3
aI5
aI3
aI5
aI4
aI4
aI4
aI5
aI5
aI5
aI5
aI3
aI4
aI2
aI3
aI3
aI5
aI4
aI3
aI2
aI3
aI5
aI0
aI3
aI3
aI3
aI3
aI3
aI2
aI4
aI2
aI4
aI3
aI3
aI3
aI3
aI5
aI2
aI5
aI2
aI4
aI3
aI4
aI5
aI3
aI3
aI4
aI5
aI3
aI4
aI3
aI0
aI2
aI4
aI5
aI4
aI4
aI4
aI4
aI5
aI5
aI4
aI3
aI5
aI2
aI4
aI3
aI4
aI5
aI4
aI3
aI1
aI2
aI0
aI3
aI4
aI1
aI3
aI4
aI5
aI4
aI2
aI2
aI2
aI3
aI5
aI3
aI0
aI3
aI2
aI0
aI4
aI0
aI4
aI3
aI2
aI1
aI0
aI3
aI5
aI4
aI5
aI3
aI4
aI5
aI4
aI2
aI5
aI5
aI3
aI3
aI3
aI3
aI5
aI5
aI5
aI4
aI1
aI3
aI3
aI4
aI4
aI3
aI1
aI4
aI4
aI0
aI4
aI5
aI3
aI3
aI4
aI4
aI4
aI3
aI4
aI3
aI5
aI5
aI3
aI3
aI5
aI3
aI0
aI5
aI2
aI4
aI2
aI3
aI1
aI2
aI4
aI3
aI1
aI1
aI1
aI3
aI1
aI0
aI1
aI1
aI4
aI5
aI0
aI1
aI2
aI2
aI0
aI2
aI0
aI0
aI1
aI1
aI1
aI1
aI0
aI2
aI4
aI0
aI3
aI0
aI1
aI5
aI5
aI3
aI5
aI5
aI5
aI1
aI4
aI1
aI0
aI3
aI1
aI0
aI0
aI0
aI0
aI1
aI2
aI0
aI1
aI0
aI1
aI0
aI0
aI0
aI0
aI0
aI1
aI2
aI2
aI0
aI1
aI3
aI1
aI0
aI2
aI3
aI2
aI4
aI0
aI1
aI0
aI3
aI2
aI2
aI2
aI3
aI5
aI4
aI3
aI0
aI5
aI5
aI3
aI4
aI2
aI0
aI5
aI4
aI1
aI2
aI0
aI0
aI0
aI5
aI1
aI4
aI3
aI5
aI2
aI5
aI3
aI1
aI5
aI0
aI0
aI0
aI0
aI4
aI5
aI5
aI5
aI5
aI1
aI4
aI4
aI4
aI4
aI4
aI2
aI0
aI3
aI4
aI4
aI5
aI5
aI0
aI0
aI3
aI0
aI0
aI4
aI2
aI2
aI2
aI0
aI3
aI5
aI0
aI2
aI2
aI5
aI0
aI0
aI0
aI2
aI3
aI3
aI5
aI4
aI0
aI2
aI4
aI3
aI1
aI0
aI5
aI2
aI5
aI4
aI5
aI4
aI4
aI4
aI1
aI3
aI5
aI1
aI5
aI3
aI0
aI4
aI1
aI2
aI1
aI2
aI2
aI0
aI0
aI0
aI0
aI5
aI3
aI1
aI5
aI5
aI3
aI3
aI3
aI2
aI3
aI1
aI2
aI3
aI3
aI4
aI3
aI0
aI2
aI5
aI2
aI4
aI4
aI2
aI2
aI3
aI5
aI3
aI3
aI5
aI3
aI1
aI5
aI5
aI5
aI5
aI1
aI1
aI3
aI0
aI4
aI0
aI0
aI1
aI1
aI1
aI1
aI2
aI4
aI5
aI2
aI3
aI2
aI2
aI3
aI5
aI1
aI4
aI5
aI5
aI4
aI5
aI4
aI2
aI4
aI5
aI3
aI5
aI5
aI0
aI5
aI3
aI2
aI2
aI3
aI1
aI4
aI5
aI3
aI2
aI4
aI2
aI4
aI5
aI5
aI5
aI3
aI1
aI3
aI3
aI1
aI0
aI0
aI3
aI0
aI0
aI4
aI0
aI0
aI4
aI3
aI4
aI3
aI3
aI2
aI3
aI4
aI4
aI3
aI5
aI0
aI4
aI0
aI1
aI0
aI2
aI2
aI4
aI3
aI1
aI0
aI5
aI0
aI1
aI3
aI3
aI2
aI2
aI3
aI2
aI0
aI4
aI2
aI4
aI1
aI0
aI4
aI3
aI3
aI4
aI5
aI4
aI5
aI5
aI3
aI5
aI2
aI4
aI4
aI5
aI5
aI4
aI4
aI3
aI5
aI5
aI4
aI1
aI0
aI1
aI4
aI5
aI1
aI0
aI2
aI3
aI5
aI2
aI2
aI1
aI3
aI2
aI3
aI1
aI1
aI0
aI1
aI0
aI3
aI5
aI4
aI5
aI4
aI3
aI0
aI0
aI3
aI1
aI5
aI4
aI5
aI5
aI2
aI4
aI4
aI2
aI4
aI2
aI4
aI4
aI2
aI5
aI4
aI2
aI5
aI4
aI2
aI5
aI5
aI4
aI5
aI5
aI5
aI5
aI3
aI4
aI5
aI5
aI2
aI5
aI5
aI2
aI2
aI5
aI2
aI5
aI4
aI5
aI3
aI5
aI5
aI4
aI3
aI3
aI5
aI5
aI5
aI2
aI3
aI4
aI2
aI3
aI2
aI0
aI2
aI5
aI5
aI4
aI5
aI5
aI4
aI5
aI4
aI5
aI5
aI3
aI3
aI2
aI3
aI4
aI0
aI4
aI4
aI1
aI1
aI4
aI3
aI3
aI3
aI0
aI1
aI0
aI5
aI1
aI3
aI1
aI1
aI0
aI2
aI0
aI3
aI0
aI0
aI2
aI0
aI0
aI0
aI3
aI3
aI0
aI3
aI5
aI2
aI2
aI0
aI3
aI4
aI0
aI4
aI5
aI0
aI3
aI2
aI5
aI2
aI0
aI4
aI1
aI3
aI1
aI1
aI2
aI4
aI1
aI0
aI4
aI4
aI3
aI3
aI5
aI3
aI3
aI5
aI4
aI5
aI3
aI3
aI3
aI5
aI5
aI0
aI2
aI0
aI3
aI0
aI2
aI0
aI2
aI3
aI0
aI1
aI3
aI0
aI0
aI0
aI1
aI0
aI0
aI0
aI4
aI1
aI1
aI3
aI0
aI3
aI5
aI0
aI0
aI3
aI0
aI5
aI0
aI3
aI1
aI5
aI2
aI2
aI4
aI5
aI3
aI3
aI2
aI2
aI4
aI0
aI0
aI2
aI0
aI3
aI3
aI0
aI5
aI5
aI0
aI2
aI5
aI3
aI4
aI4
aI3
aI0
aI3
aI3
aI3
aI2
aI2
aI4
aI5
aI1
aI5
aI5
aI4
aI1
aI0
aI4
aI3
aI5
aI4
aI4
aI3
aI5
aI4
aI5
aI4
aI1
aI2
aI1
aI2
aI2
aI4
aI2
aI4
aI4
aI3
aI4
aI4
aI5
aI0
aI2
aI3
aI4
aI2
aI2
aI2
aI1
aI2
aI5
aI4
aI5
aI0
aI5
aI5
aI1
aI2
aI3
aI1
aI3
aI4
aI2
aI5
aI1
aI4
aI4
aI5
aI3
aI1
aI4
aI4
aI3
aI2
aI3
aI3
aI1
aI3
aI4
aI3
aI3
aI3
aI2
aI2
aI4
aI5
aI4
aI4
aI2
aI5
aI3
aI4
aI4
aI5
aI1
aI4
aI0
aI3
aI4
aI2
aI2
aI4
aI4
aI3
aI0
aI3
aI3
aI4
aI1
aI3
aI1
aI4
aI4
aI0
aI3
aI4
aI3
aI2
aI2
aI1
aI2
aI3
aI2
aI3
aI3
aI3
aI2
aI3
aI3
aI1
aI3
aI3
aI2
aI3
aI3
aI1
aI2
aI3
aI2
aI4
aI2
aI3
aI2
aI5
aI3
aI3
aI3
aI4
aI2
aI3
aI4
aI3
aI3
aI1
aI3
aI0
aI1
aI4
aI3
aI4
aI2
aI2
aI3
aI3
aI3
aI3
aI3
aI2
aI3
aI3
aI2
aI3
aI3
aI4
aI5
aI4
aI2
aI2
aI4
aI2
aI2
aI5
aI4
aI4
aI1
aI5
aI3
aI2
aI2
aI3
aI5
aI3
aI4
aI3
aI2
aI2
aI3
aI4
aI4
aI2
aI3
aI2
aI3
aI2
aI4
aI3
aI3
aI3
aI2
aI2
aI2
aI4
aI4
aI3
aI4
aI3
aI4
aI3
aI5
aI4
aI4
aI3
aI3
aI3
aI3
aI2
aI3
aI3
aI4
aI4
aI2
aI3
aI1
aI3
aI3
aI3
aI1
aI0
aI3
aI3
aI2
aI3
aI2
aI2
aI3
aI3
aI0
aI2
aI3
aI3
aI4
aI2
aI2
aI4
aI3
aI2
aI4
aI1
aI3
aI1
aI2
aI3
aI1
aI4
aI4
aI3
aI3
aI4
aI3
aI2
aI2
aI2
aI4
aI3
aI2
aI2
aI4
aI5
aI2
aI3
aI5
aI3
aI2
aI2
aI2
aI2
aI2
aI4
aI4
aI4
aI3
aI2
aI3
aI3
aI4
aI4
aI1
aI5
aI2
aI3
aI1
aI3
aI4
aI2
aI4
aI4
aI4
aI1
aI4
aI2
aI2
aI3
aI4
aI3
aI3
aI4
aI2
aI5
aI3
aI3
aI4
aI2
aI2
aI3
aI4
aI3
aI4
aI3
aI4
aI4
aI1
aI4
aI2
aI4
aI3
aI4
aI2
aI4
aI4
aI1
aI3
aI3
aI2
aI1
aI3
aI0
aI0
aI2
aI5
aI2
aI2
aI3
aI1
aI3
aI2
aI3
aI2
aI1
aI2
aI1
aI3
aI3
aI3
aI4
aI3
aI3
aI3
aI3
aI4
aI3
aI2
aI2
aI3
aI3
aI4
aI3
aI2
aI3
aI3
aI2
aI2
aI3
aI2
aI3
aI3
aI4
aI3
aI3
aI5
aI2
aI5
aI2
aI2
aI3
aI2
aI3
aI4
aI4
aI5
aI3
aI0
aI2
aI5
aI3
aI4
aI3
aI3
aI3
aI1
aI3
aI2
aI2
aI2
aI1
aI4
aI4
aI4
aI3
aI3
aI3
aI3
aI2
aI3
aI3
aI4
aI5
aI2
aI3
aI3
aI3
aI1
aI4
aI2
aI0
aI3
aI3
aI2
aI2
aI3
aI1
aI0
aI2
aI2
aI2
aI3
aI1
aI2
aI4
aI4
aI1
aI2
aI4
aI3
aI3
aI5
aI5
aI5
aI2
aI3
aI2
aI4
aI2
aI5
aI3
aI4
aI3
aI3
aI4
aI4
aI4
aI2
aI3
aI3
aI3
aI3
aI4
aI2
aI3
aI3
aI3
aI2
aI4
aI3
aI4
aI2
aI3
aI2
aI5
aI2
aI3
aI4
aI3
aI3
aI3
aI2
aI4
aI4
aI4
aI3
aI2
aI4
aI3
aI3
aI3
aI2
aI4
aI4
aI3
aI3
aI4
aI4
aI1
aI2
aI2
aI1
aI2
aI4
aI2
aI4
aI4
aI3
aI3
aI4
aI4
aI4
aI4
aI2
aI4
aI3
aI3
aI2
aI3
aI3
aI1
aI3
aI3
aI0
aI2
aI4
aI2
aI3
aI4
aI4
aI3
aI1
aI3
aI4
aI1
aI0
aI0
aI4
aI2
aI3
aI4
aI3
aI3
aI3
aI5
aI4
aI3
aI2
aI2
aI4
aI3
aI2
aI3
aI4
aI4
aI2
aI5
aI2
aI4
aI3
aI2
aI2
aI3
aI3
aI3
aI1
aI3
aI3
aI2
aI3
aI2
aI0
aI1
aI4
aI2
aI5
aI4
aI2
aI2
aI3
aI3
aI3
aI3
aI2
aI2
aI3
aI3
aI4
aI3
aI3
aI2
aI2
aI4
aI1
aI2
aI2
aI3
aI3
aI3
aI3
aI3
aI2
aI3
aI1
aI0
aI3
aI4
aI1
aI3
aI3
aI4
aI4
aI4
aI5
aI5
aI3
aI2
aI2
aI5
aI2
aI0
aI3
aI1
aI3
aI3
aI2
aI0
aI1
aI1
aI0
aI0
aI4
aI2
aI0
aI0
aI0
aI3
aI4
aI5
aI3
aI3
aI1
aI3
aI3
aI3
aI3
aI2
aI4
aI5
aI3
aI3
aI3
aI4
aI4
aI1
aI4
aI0
aI5
aI3
aI4
aI5
aI4
aI5
aI0
aI4
aI2
aI4
aI3
aI2
aI4
aI4
aI3
aI3
aI4
aI3
aI2
aI5
aI4
aI3
aI4
aI4
aI3
aI5
aI3
aI5
aI4
aI5
aI5
aI3
aI4
aI4
aI5
aI2
aI4
aI2
aI3
aI5
aI3
aI3
aI5
aI4
aI3
aI5
aI3
aI3
aI4
aI4
aI4
aI2
aI4
aI3
aI1
aI3
aI0
aI0
aI4
aI5
aI4
aI5
aI4
aI5
aI3
aI5
aI2
aI2
aI5
aI5
aI5
aI3
aI5
aI2
aI3
aI5
aI5
aI4
aI4
aI5
aI2
aI5
aI4
aI5
aI2
aI3
aI3
aI0
aI3
aI2
aI2
aI2
aI4
aI3
aI4
aI4
aI5
aI3
aI4
aI3
aI3
aI4
aI5
aI4
aI5
aI3
aI4
aI3
aI5
aI4
aI5
aI0
aI4
aI3
aI2
aI2
aI3
aI5
aI5
aI5
aI4
aI3
aI5
aI2
aI5
aI4
aI4
aI3
aI4
aI5
aI1
aI2
aI2
aI3
aI4
aI2
aI4
aI2
aI4
aI4
aI3
aI3
aI4
aI4
aI3
aI5
aI3
aI3
aI5
aI4
aI5
aI5
aI3
aI3
aI2
aI0
aI5
aI4
aI5
aI3
aI4
aI4
aI5
aI4
aI3
aI5
aI3
aI2
aI4
aI3
aI0
aI3
aI3
aI4
aI5
aI3
aI5
aI4
aI2
aI3
aI5
aI4
aI2
aI5
aI3
aI4
aI3
aI3
aI4
aI5
aI5
aI5
aI2
aI3
aI5
aI3
aI5
aI4
aI5
aI3
aI4
aI5
aI1
aI2
aI5
aI5
aI4
aI2
aI4
aI2
aI5
aI5
aI3
aI2
aI5
aI3
aI2
aI3
aI1
aI0
aI3
aI1
aI4
aI3
aI3
aI5
aI5
aI4
aI4
aI3
aI4
aI3
aI2
aI3
aI2
aI4
aI0
aI3
aI3
aI3
aI4
aI3
aI2
aI3
aI2
aI2
aI4
aI4
aI5
aI4
aI4
aI4
aI3
aI0
aI3
aI2
aI3
aI3
aI3
aI2
aI4
aI4
aI1
aI2
aI3
aI2
aI2
aI2
aI3
aI2
aI0
aI3
aI3
aI1
aI3
aI0
aI0
aI5
aI3
aI0
aI5
aI2
aI3
aI4
aI0
aI2
aI5
aI5
aI2
aI3
aI3
aI5
aI3
aI5
aI4
aI5
aI5
aI5
aI3
aI1
aI0
aI5
aI5
aI4
aI5
aI5
aI5
aI4
aI5
aI5
aI1
aI1
aI0
aI0
aI5
aI5
aI4
aI5
aI5
aI5
aI0
aI1
aI4
aI4
aI4
aI4
aI5
aI4
aI4
aI0
aI3
aI5
aI5
aI5
aI3
aI5
aI4
aI5
aI4
aI4
aI5
aI1
aI5
aI3
aI2
aI2
aI3
aI5
aI2
aI2
aI0
aI3
aI5
aI4
aI3
aI4
aI5
aI2
aI4
aI0
aI4
aI5
aI3
aI4
aI3
aI5
aI3
aI3
aI4
aI5
aI4
aI2
aI5
aI5
aI5
aI5
aI4
aI5
aI4
aI4
aI4
aI5
aI3
aI4
aI2
aI4
aI4
aI4
aI5
aI3
aI5
aI4
aI4
aI3
aI3
aI5
aI4
aI5
aI2
aI2
aI3
aI5
aI0
aI0
aI2
aI5
aI5
aI2
aI0
aI5
aI5
aI5
aI5
aI3
aI5
aI4
aI5
aI0
aI0
aI5
aI5
aI4
aI4
aI4
aI4
aI5
aI2
aI2
aI3
aI3
aI4
aI3
aI5
aI5
aI4
aI4
aI2
aI4
aI4
aI4
aI2
aI4
aI5
aI5
aI5
aI3
aI5
aI5
aI4
aI2
aI3
aI3
aI5
aI0
aI1
aI0
aI2
aI3
aI2
aI3
aI3
aI4
aI3
aI2
aI5
aI5
aI5
aI2
aI4
aI5
aI5
aI1
aI2
aI0
aI5
aI4
aI5
aI3
aI5
aI2
aI4
aI4
aI2
aI3
aI2
aI2
aI5
aI3
aI1
asI2010
(lp6
I4
aI0
aI4
aI4
aI5
aI5
aI5
aI5
aI5
aI3
aI5
aI2
aI3
aI4
aI5
aI2
aI2
aI1
aI3
aI5
aI2
aI3
aI3
aI4
aI4
aI4
aI5
aI3
aI1
aI2
aI1
aI3
aI5
aI2
aI1
aI1
aI0
aI2
aI5
aI4
aI0
aI4
aI1
aI5
aI4
aI5
aI3
aI3
aI5
aI4
aI4
aI2
aI0
aI3
aI5
aI4
aI4
aI1
aI2
aI2
aI1
aI4
aI2
aI5
aI2
aI4
aI4
aI4
aI5
aI3
aI3
aI3
aI3
aI4
aI5
aI5
aI2
aI0
aI3
aI4
aI5
aI0
aI1
aI3
aI5
aI5
aI3
aI3
aI4
aI2
aI3
aI4
aI2
aI4
aI2
aI4
aI2
aI5
aI3
aI5
aI3
aI2
aI4
aI3
aI0
aI0
aI1
aI1
aI3
aI2
aI3
aI2
aI3
aI1
aI2
aI3
aI4
aI3
aI2
aI4
aI5
aI3
aI2
aI3
aI2
aI5
aI3
aI2
aI5
aI5
aI5
aI5
aI3
aI0
aI1
aI4
aI4
aI3
aI3
aI2
aI3
aI4
aI2
aI5
aI5
aI3
aI3
aI5
aI5
aI3
aI4
aI5
aI3
aI3
aI3
aI3
aI2
aI3
aI2
aI2
aI2
aI3
aI2
aI3
aI4
aI3
aI4
aI5
aI4
aI2
aI5
aI4
aI2
aI5
aI5
aI3
aI4
aI2
aI2
aI2
aI4
aI5
aI5
aI4
aI5
aI4
aI2
aI1
aI0
aI0
aI1
aI2
aI0
aI3
aI4
aI0
aI0
aI2
aI1
aI0
aI1
aI3
aI2
aI2
aI3
aI3
aI2
aI4
aI2
aI4
aI0
aI1
aI4
aI3
aI3
aI3
aI1
aI2
aI2
aI2
aI3
aI2
aI4
aI4
aI3
aI4
aI4
aI4
aI3
aI3
aI1
aI2
aI5
aI5
aI5
aI4
aI5
aI3
aI5
aI5
aI3
aI0
aI5
aI0
aI3
aI4
aI5
aI4
aI5
aI2
aI2
aI4
aI2
aI5
aI4
aI2
aI5
aI4
aI2
aI5
aI0
aI4
aI0
aI2
aI4
aI4
aI3
aI5
aI2
aI4
aI5
aI5
aI5
aI3
aI4
aI5
aI4
aI5
aI3
aI0
aI0
aI4
aI5
aI3
aI3
aI4
aI2
aI5
aI4
aI4
aI1
aI5
aI5
aI4
aI1
aI5
aI2
aI1
aI5
aI3
aI3
aI4
aI3
aI5
aI3
aI4
aI3
aI5
aI2
aI0
aI3
aI0
aI3
aI2
aI1
aI0
aI3
aI0
aI2
aI4
aI3
aI2
aI3
aI5
aI5
aI1
aI5
aI3
aI3
aI1
aI2
aI3
aI2
aI0
aI2
aI2
aI2
aI0
aI2
aI3
aI5
aI2
aI0
aI1
aI2
aI0
aI3
aI4
aI5
aI5
aI5
aI3
aI5
aI3
aI2
aI0
aI1
aI3
aI4
aI5
aI0
aI0
aI0
aI3
aI1
aI3
aI4
aI3
aI0
aI4
aI2
aI3
aI4
aI4
aI3
aI4
aI5
aI2
aI2
aI5
aI3
aI5
aI0
aI3
aI3
aI1
aI1
aI3
aI0
aI0
aI0
aI4
aI4
aI0
aI0
aI5
aI5
aI5
aI4
aI5
aI5
aI4
aI5
aI4
aI4
aI5
aI1
aI5
aI5
aI4
aI4
aI5
aI4
aI4
aI0
aI2
aI5
aI5
aI5
aI2
aI5
aI4
aI5
aI0
aI5
aI4
aI4
aI5
aI3
aI3
aI5
aI2
aI4
aI0
aI3
aI5
aI3
aI5
aI2
aI3
aI1
aI1
aI3
aI4
aI5
aI0
aI2
aI3
aI4
aI0
aI1
aI2
aI1
aI0
aI2
aI5
aI3
aI4
aI1
aI4
aI5
aI5
aI3
aI0
aI0
aI1
aI1
aI0
aI1
aI4
aI0
aI0
aI0
aI2
aI5
aI0
aI1
aI1
aI3
aI3
aI3
aI1
aI1
aI3
aI4
aI3
aI0
aI2
aI3
aI4
aI0
aI1
aI2
aI0
aI0
aI3
aI0
aI0
aI4
aI2
aI3
aI1
aI5
aI0
aI4
aI4
aI1
aI2
aI3
aI5
aI3
aI5
aI5
aI5
aI5
aI4
aI4
aI3
aI3
aI2
aI1
aI5
aI4
aI4
aI0
aI2
aI4
aI4
aI1
aI5
aI1
aI0
aI3
aI2
aI4
aI2
aI0
aI0
aI2
aI1
aI0
aI2
aI0
aI4
aI0
aI4
aI4
aI5
aI5
aI5
aI5
aI2
aI2
aI5
aI1
aI0
aI5
aI3
aI3
aI3
aI5
aI0
aI3
aI3
aI4
aI5
aI2
aI2
aI3
aI4
aI0
aI0
aI1
aI0
aI0
aI0
aI5
aI4
aI5
aI5
aI5
aI5
aI3
aI0
aI4
aI3
aI5
aI3
aI5
aI4
aI5
aI3
aI5
aI3
aI2
aI3
aI5
aI2
aI3
aI5
aI5
aI2
aI2
aI4
aI4
aI4
aI4
aI3
aI1
aI3
aI2
aI4
aI4
aI1
aI5
aI0
aI3
aI5
aI3
aI4
aI5
aI2
aI2
aI1
aI4
aI5
aI5
aI4
aI0
aI4
aI3
aI3
aI1
aI5
aI4
aI2
aI2
aI4
aI5
aI5
aI5
aI5
aI4
aI5
aI5
aI2
aI3
aI0
aI4
aI5
aI5
aI2
aI3
aI2
aI3
aI5
aI2
aI0
aI0
aI2
aI1
aI5
aI5
aI5
aI1
aI5
aI3
aI1
aI0
aI2
aI4
aI3
aI3
aI3
aI4
aI4
aI5
aI3
aI5
aI5
aI3
aI2
aI2
aI3
aI1
aI2
aI3
aI2
aI5
aI2
aI1
aI2
aI1
aI0
aI4
aI1
aI5
aI1
aI4
aI3
aI3
aI3
aI2
aI4
aI4
aI1
aI4
aI5
aI5
aI3
aI1
aI0
aI0
aI4
aI0
aI0
aI0
aI1
aI2
aI3
aI3
aI3
aI3
aI0
aI2
aI4
aI2
aI3
aI4
aI4
aI4
aI3
aI3
aI4
aI1
aI5
aI0
aI2
aI0
aI0
aI1
aI5
aI4
aI4
aI3
aI2
aI4
aI2
aI3
aI0
aI3
aI0
aI3
aI4
aI2
aI3
aI4
aI3
aI3
aI4
aI1
aI1
aI2
aI3
aI2
aI5
aI4
aI3
aI3
aI4
aI0
aI0
aI2
aI0
aI2
aI2
aI1
aI4
aI0
aI3
aI1
aI4
aI0
aI3
aI3
aI0
aI0
aI4
aI0
aI2
aI3
aI0
aI2
aI2
aI2
aI2
aI3
aI3
aI1
aI1
aI1
aI3
aI2
aI3
aI2
aI5
aI5
aI4
aI0
aI2
aI4
aI3
aI1
aI0
aI3
aI4
aI5
aI2
aI1
aI4
aI4
aI5
aI2
aI5
aI3
aI4
aI5
aI4
aI4
aI5
aI3
aI2
aI4
aI5
aI5
aI3
aI2
aI5
aI2
aI3
aI4
aI3
aI3
aI5
aI4
aI0
aI1
aI1
aI5
aI4
aI2
aI4
aI5
aI4
aI2
aI5
aI4
aI3
aI3
aI4
aI2
aI5
aI0
aI3
aI3
aI0
aI1
aI1
aI4
aI3
aI4
aI3
aI3
aI5
aI3
aI5
aI4
aI2
aI5
aI0
aI2
aI5
aI4
aI4
aI3
aI2
aI3
aI2
aI5
aI4
aI5
aI2
aI2
aI3
aI4
aI4
aI3
aI3
aI5
aI0
aI0
aI2
aI3
aI1
aI1
aI4
aI3
aI2
aI1
aI3
aI3
aI3
aI0
aI1
aI0
aI2
aI5
aI3
aI5
aI5
aI3
aI3
aI2
aI4
aI3
aI3
aI3
aI1
aI0
aI2
aI3
aI0
aI4
aI2
aI2
aI2
aI5
aI0
aI4
aI2
aI5
aI3
aI0
aI0
aI5
aI5
aI1
aI3
aI4
aI5
aI5
aI1
aI4
aI0
aI3
aI2
aI2
aI3
aI1
aI4
aI5
aI3
aI4
aI5
aI5
aI5
aI3
aI1
aI4
aI3
aI5
aI5
aI5
aI4
aI5
aI5
aI5
aI5
aI5
aI5
aI3
aI4
aI3
aI3
aI2
aI3
aI3
aI2
aI1
aI4
aI4
aI3
aI4
aI2
aI3
aI5
aI5
aI5
aI3
aI3
aI5
aI5
aI3
aI5
aI1
aI3
aI5
aI4
aI4
aI5
aI5
aI3
aI4
aI4
aI4
aI4
aI2
aI3
aI4
aI3
aI5
aI0
aI1
aI3
aI0
aI0
aI0
aI0
aI3
aI4
aI2
aI4
aI5
aI5
aI5
aI0
aI0
aI0
aI4
aI4
aI3
aI2
aI0
aI3
aI0
aI4
aI1
aI0
aI2
aI5
aI1
aI0
aI4
aI0
aI0
aI0
aI0
aI1
aI2
aI0
aI0
aI2
aI4
aI0
aI3
aI0
aI4
aI4
aI0
aI0
aI0
aI0
aI0
aI0
aI0
aI1
aI1
aI5
aI2
aI0
aI0
aI5
aI3
aI4
aI3
aI3
aI3
aI0
aI3
aI3
aI2
aI5
aI2
aI2
aI0
aI0
aI2
aI0
aI3
aI5
aI0
aI4
aI1
aI4
aI0
aI5
aI4
aI1
aI0
aI3
aI3
aI3
aI0
aI0
aI2
aI2
aI0
aI0
aI1
aI0
aI1
aI2
aI2
aI4
aI3
aI2
aI1
aI1
aI0
aI5
aI3
aI3
aI4
aI4
aI3
aI2
aI3
aI0
aI0
aI4
aI2
aI1
aI0
aI4
aI4
aI3
aI2
aI2
aI0
aI2
aI0
aI0
aI2
aI3
aI3
aI4
aI0
aI4
aI3
aI2
aI1
aI0
aI5
aI5
aI4
aI4
aI4
aI2
aI3
aI1
aI3
aI2
aI0
aI5
aI3
aI4
aI5
aI3
aI3
aI5
aI4
aI4
aI3
aI3
aI1
aI2
aI1
aI2
aI5
aI4
aI0
aI2
aI2
aI0
aI2
aI4
aI3
aI2
aI3
aI3
aI1
aI5
aI3
aI4
aI4
aI4
aI3
aI1
aI1
aI3
aI5
aI0
aI5
aI4
aI5
aI3
aI2
aI4
aI5
aI4
aI3
aI4
aI4
aI3
aI3
aI5
aI5
aI5
aI5
aI5
aI5
aI3
aI3
aI1
aI0
aI2
aI3
aI4
aI3
aI2
aI3
aI3
aI3
aI2
aI5
aI3
aI2
aI4
aI5
aI0
aI2
aI2
aI5
aI5
aI5
aI4
aI4
aI1
aI5
aI5
aI4
aI1
aI2
aI5
aI3
aI2
aI4
aI5
aI3
aI2
aI4
aI5
aI3
aI5
aI5
aI5
aI3
aI5
aI4
aI5
aI5
aI4
aI3
aI3
aI5
aI3
aI3
aI0
aI0
aI3
aI0
aI3
aI1
aI2
aI0
aI2
aI0
aI2
aI0
aI0
aI0
aI0
aI0
aI0
aI1
aI4
aI2
aI2
aI1
aI3
aI5
aI2
aI4
aI5
aI5
aI4
aI5
aI4
aI4
aI5
aI5
aI5
aI5
aI4
aI4
aI5
aI3
aI5
aI5
aI2
aI3
aI4
aI5
aI5
aI5
aI5
aI4
aI5
aI5
aI5
aI5
aI5
aI4
aI3
aI5
aI3
aI5
aI5
aI4
aI5
aI4
aI4
aI5
aI1
aI1
aI1
aI2
aI3
aI4
aI3
aI1
aI2
aI3
aI4
aI2
aI4
aI5
aI5
aI0
aI2
aI5
aI2
aI5
aI1
aI0
aI3
aI0
aI5
aI4
aI5
aI3
aI4
aI5
aI5
aI4
aI5
aI4
aI2
aI5
aI4
aI1
aI2
aI1
aI0
aI4
aI1
aI1
aI0
aI3
aI3
aI0
aI0
aI1
aI4
aI3
aI5
aI4
aI2
aI0
aI4
aI5
aI0
aI5
aI0
aI4
aI0
aI3
aI4
aI1
aI0
aI1
aI0
aI3
aI0
aI0
aI0
aI3
aI0
aI0
aI2
aI5
aI3
aI4
aI2
aI3
aI3
aI1
aI0
aI4
aI0
aI2
aI0
aI4
aI3
aI2
aI1
aI1
aI2
aI0
aI1
aI3
aI0
aI3
aI5
aI2
aI3
aI3
aI3
aI2
aI2
aI5
aI4
aI2
aI0
aI5
aI3
aI1
aI5
aI0
aI1
aI4
aI0
aI4
aI2
aI0
aI4
aI1
aI1
aI5
aI5
aI1
aI3
aI5
aI4
aI5
aI0
aI0
aI5
aI4
aI4
aI3
aI3
aI4
aI5
aI4
aI0
aI5
aI0
aI0
aI3
aI3
aI0
aI5
aI3
aI0
aI3
aI5
aI5
aI5
aI5
aI5
aI5
aI5
aI5
aI4
aI2
aI5
aI5
aI5
aI5
aI3
aI4
aI5
aI5
aI3
aI2
aI4
aI3
aI2
aI4
aI1
aI0
aI3
aI3
aI4
aI1
aI1
aI2
aI3
aI1
aI3
aI5
aI4
aI2
aI4
aI2
aI3
aI3
aI0
aI1
aI4
aI3
aI3
aI2
aI3
aI4
aI3
aI3
aI2
aI2
aI5
aI4
aI3
aI3
aI1
aI1
aI5
aI1
aI3
aI4
aI1
aI3
aI2
aI2
aI2
aI5
aI5
aI3
aI4
aI5
aI5
aI2
aI5
aI0
aI2
aI4
aI4
aI3
aI3
aI2
aI0
aI5
aI4
aI2
aI3
aI5
aI5
aI4
aI3
aI5
aI2
aI5
aI3
aI5
aI3
aI3
aI3
aI5
aI4
aI3
aI2
aI4
aI4
aI3
aI1
aI2
aI4
aI3
aI4
aI5
aI0
aI2
aI3
aI3
aI5
aI0
aI3
aI2
aI4
aI4
aI2
aI3
aI0
aI2
aI3
aI2
aI4
aI3
aI2
aI4
aI3
aI5
aI3
aI5
aI5
aI3
aI4
aI3
aI1
aI1
aI4
aI4
aI5
aI3
aI4
aI3
aI3
aI2
aI3
aI1
aI2
aI4
aI3
aI3
aI0
aI2
aI2
aI2
aI3
aI2
aI2
aI5
aI4
aI4
aI3
aI3
aI4
aI5
aI4
aI2
aI4
aI5
aI5
aI3
aI4
aI4
aI3
aI3
aI1
aI2
aI1
aI0
aI3
aI3
aI0
aI1
aI1
aI2
aI1
aI3
aI2
aI2
aI2
aI3
aI3
aI4
aI2
aI4
aI2
aI1
aI0
aI2
aI5
aI5
aI4
aI2
aI3
aI0
aI4
aI3
aI2
aI2
aI1
aI4
aI3
aI2
aI4
aI5
aI2
aI3
aI2
aI3
aI2
aI4
aI3
aI5
aI3
aI3
aI3
aI5
aI3
aI3
aI2
aI2
aI0
aI2
aI1
aI2
aI4
aI0
aI2
aI0
aI4
aI5
aI4
aI2
aI3
aI1
aI3
aI5
aI3
aI3
aI2
aI0
aI1
aI3
aI3
aI5
aI4
aI5
aI1
aI3
aI5
aI3
aI2
aI5
aI3
aI3
aI4
aI3
aI1
aI4
aI2
aI3
aI2
aI4
aI4
aI2
aI4
aI4
aI2
aI4
aI5
aI5
aI5
aI3
aI4
aI3
aI3
aI2
aI2
aI3
aI2
aI2
aI1
aI0
aI4
aI3
aI3
aI2
aI0
aI4
aI4
aI3
aI0
aI5
aI4
aI2
aI0
aI2
aI2
aI4
aI1
aI3
aI1
aI0
aI3
aI3
aI3
aI3
aI0
aI0
aI1
aI2
aI4
aI2
aI2
aI3
aI3
aI5
aI5
aI4
aI4
aI5
aI0
aI4
aI2
aI3
aI2
aI2
aI1
aI0
aI2
aI3
aI3
aI0
aI5
aI0
aI0
aI2
aI4
aI2
aI3
aI1
aI3
aI2
aI2
aI4
aI3
aI2
aI1
aI3
aI0
aI3
aI1
aI1
aI3
aI2
aI2
aI3
aI3
aI4
aI2
aI5
aI3
aI2
aI2
aI0
aI2
aI2
aI0
aI5
aI4
aI4
aI5
aI5
aI5
aI2
aI4
aI4
aI3
aI3
aI5
aI5
aI5
aI3
aI4
aI5
aI5
aI3
aI2
aI5
aI4
aI5
aI4
aI3
aI1
aI1
aI5
aI5
aI3
aI2
aI4
aI3
aI4
aI3
aI4
aI4
aI4
aI3
aI4
aI3
aI4
aI4
aI2
aI3
aI3
aI2
aI3
aI1
aI2
aI3
aI2
aI5
aI2
aI4
aI2
aI5
aI1
aI3
aI2
aI2
aI1
aI3
aI1
aI1
aI3
aI2
aI3
aI1
aI1
aI4
aI1
aI3
aI2
aI3
aI1
aI0
aI2
aI3
aI4
aI2
aI4
aI3
aI3
aI2
aI2
aI2
aI1
aI4
aI2
aI3
aI0
aI2
aI3
aI3
aI1
aI4
aI0
aI4
aI3
aI4
aI4
aI3
aI2
aI5
aI5
aI5
aI5
aI4
aI1
aI3
aI3
aI3
aI5
aI1
aI4
aI5
aI5
aI2
aI5
aI2
aI3
aI5
aI2
aI4
aI3
aI0
aI5
aI2
aI2
aI0
aI1
aI3
aI4
aI0
aI3
aI2
aI3
aI4
aI5
aI0
aI2
aI3
aI3
aI5
aI3
aI3
aI3
aI1
aI2
aI0
aI4
aI2
aI5
aI5
aI5
aI4
aI4
aI1
aI0
aI2
aI3
aI2
aI0
aI4
aI4
aI4
aI4
aI5
aI4
aI3
aI2
aI5
aI5
aI5
aI4
aI4
aI4
aI5
aI2
aI5
aI0
aI0
aI1
aI4
aI5
aI3
aI5
aI3
aI3
aI3
aI3
aI4
aI5
aI5
aI3
aI4
aI4
aI4
aI3
aI1
aI2
aI0
aI0
aI0
aI0
aI1
aI0
aI2
aI1
aI1
aI3
aI5
aI3
aI2
aI3
aI1
aI3
aI0
aI4
aI0
aI4
aI5
aI5
aI3
aI1
aI3
aI5
aI5
aI3
aI4
aI0
aI2
aI1
aI3
aI3
aI2
aI1
aI2
aI1
aI3
aI3
aI2
aI2
aI3
aI2
aI5
aI2
aI2
aI2
aI5
aI2
aI0
aI2
aI4
aI5
aI3
aI0
aI1
aI0
aI0
aI0
aI0
aI3
aI3
aI4
aI3
aI3
aI5
aI5
aI2
aI5
aI5
aI4
aI3
aI4
aI4
aI5
aI2
aI5
aI4
aI3
aI4
aI2
aI5
aI4
aI4
aI4
aI3
aI5
aI4
aI3
aI3
aI0
aI0
aI2
aI1
aI4
aI3
aI1
aI4
aI5
aI3
aI5
aI1
aI5
aI3
aI3
aI4
aI3
aI3
aI5
aI5
aI5
aI5
aI5
aI3
aI5
aI5
aI5
aI5
aI4
aI4
aI5
aI4
aI5
aI5
aI5
aI4
aI5
aI5
aI5
aI5
aI4
aI5
aI5
aI4
aI5
aI3
aI0
aI1
aI4
aI4
aI4
aI5
aI4
aI5
aI2
aI5
aI4
aI5
aI4
aI2
aI5
aI1
aI3
aI5
aI3
aI5
aI5
aI4
aI3
aI3
aI5
aI4
aI5
aI3
aI4
aI1
aI0
aI3
aI4
aI1
aI5
aI3
aI4
aI5
aI5
aI5
aI4
aI2
aI2
aI1
aI2
aI2
aI2
aI0
aI1
aI2
aI5
aI0
aI4
aI0
aI1
aI1
aI1
aI3
aI4
aI4
aI2
aI3
aI3
aI2
aI3
aI3
aI2
aI3
aI3
aI2
aI3
aI0
aI2
aI3
aI3
aI0
aI0
aI3
aI4
aI4
aI5
aI3
aI3
aI3
aI5
aI4
aI4
aI4
aI0
aI2
aI2
aI3
aI1
aI1
aI0
aI0
aI3
aI0
aI2
aI2
aI5
aI4
aI3
aI3
aI3
aI5
aI1
aI2
aI0
aI5
aI2
aI1
aI2
aI4
aI5
aI5
aI3
aI3
aI2
aI5
aI4
aI4
aI5
aI4
aI4
aI4
aI4
aI5
aI4
aI4
aI3
aI2
aI5
aI3
aI2
aI3
aI2
aI5
aI3
aI3
aI5
aI3
aI1
aI3
aI2
aI5
aI3
aI1
aI3
aI2
aI5
aI0
aI3
aI3
aI2
aI1
aI3
aI5
aI3
aI5
aI4
aI1
aI0
aI5
aI5
aI3
aI0
aI3
aI2
aI3
aI4
aI2
aI4
aI5
aI5
aI5
aI4
aI5
aI2
aI2
aI3
aI5
aI5
aI3
aI4
aI3
aI3
aI3
aI3
aI5
aI5
aI3
aI3
aI5
aI5
aI3
aI3
aI4
aI5
aI2
aI0
aI1
aI4
aI5
aI3
aI0
aI4
aI2
aI3
aI2
aI0
aI0
aI0
aI4
aI5
aI4
aI3
aI5
aI2
aI5
aI5
aI4
aI3
aI3
aI4
aI3
aI2
aI5
aI1
aI0
aI5
aI5
aI4
aI4
aI4
aI2
aI2
aI2
aI2
aI0
aI3
aI3
aI1
aI0
aI0
aI1
aI3
aI5
aI3
aI4
aI2
aI3
aI0
aI3
aI2
aI2
aI2
aI0
aI1
aI2
aI3
aI0
aI4
aI4
aI3
aI4
aI1
aI5
aI2
aI1
aI4
aI2
aI3
aI3
aI2
aI0
aI3
aI5
aI5
aI5
aI4
aI5
aI0
aI3
aI5
aI0
aI5
aI2
aI4
aI2
aI0
aI5
aI5
aI2
aI0
aI0
aI0
aI2
aI3
aI5
aI2
aI4
aI4
aI5
aI5
aI5
aI5
aI5
aI4
aI5
aI4
aI4
aI5
aI5
aI0
aI3
aI0
aI2
aI2
aI0
aI1
aI5
aI4
aI3
aI2
aI5
aI4
aI3
aI0
aI0
aI4
aI4
aI5
aI5
aI4
aI3
aI1
aI2
aI5
aI3
aI0
aI0
aI0
aI4
aI5
aI0
aI5
aI5
aI4
aI4
aI5
aI5
aI4
aI1
aI1
aI3
aI0
aI5
aI5
aI4
aI1
aI4
aI4
aI5
aI3
aI0
aI3
aI5
aI5
aI5
aI4
aI5
aI4
aI0
aI4
aI4
aI5
aI4
aI1
aI3
aI5
aI0
aI3
aI0
aI0
aI1
aI4
aI1
aI5
aI4
aI3
aI5
aI5
aI5
aI4
aI5
aI3
aI1
aI3
aI1
aI4
aI1
aI1
aI0
aI3
aI0
aI1
aI3
aI4
aI1
aI4
aI1
aI1
aI0
aI3
aI4
aI5
aI2
aI2
aI3
aI4
aI5
aI4
aI5
aI5
aI5
aI5
aI2
aI5
aI1
aI1
aI2
aI3
aI3
aI1
aI5
aI5
aI4
aI2
aI3
aI4
aI0
aI4
aI0
aI0
aI0
aI5
aI4
aI5
aI4
aI4
aI5
aI5
aI4
aI4
aI0
aI3
aI5
aI1
aI3
aI0
aI5
aI3
aI4
aI2
aI0
aI0
aI1
aI1
aI0
aI2
aI1
aI1
aI1
aI1
aI0
aI0
aI0
aI0
aI1
aI2
aI4
aI3
aI5
aI5
aI5
aI2
aI5
aI5
aI4
aI0
aI5
aI2
aI5
aI2
aI2
aI4
aI1
aI3
aI4
aI5
aI5
aI3
aI3
aI2
aI4
aI4
aI3
aI2
aI5
aI5
aI5
aI5
aI4
aI5
aI5
aI3
aI3
aI5
aI4
aI5
aI4
aI5
aI2
aI0
aI4
aI4
aI2
aI5
aI2
aI3
aI5
aI3
aI3
aI2
aI3
aI4
aI5
aI4
aI3
aI3
aI3
aI3
aI2
aI4
aI4
aI5
aI3
aI0
aI4
aI1
aI1
aI2
aI1
aI2
aI5
aI0
aI4
aI5
aI3
aI2
aI2
aI2
aI2
aI5
aI1
aI0
aI2
aI4
aI3
aI1
aI3
aI2
aI2
aI4
aI5
aI2
aI5
aI3
aI4
aI4
aI3
aI3
aI5
aI3
aI2
aI3
aI2
aI5
aI3
aI3
aI5
aI3
aI5
aI5
aI4
aI5
aI3
aI4
aI3
aI3
aI2
aI5
aI1
aI3
aI2
aI2
aI1
aI4
aI3
aI5
aI5
aI3
aI3
aI3
aI3
aI2
aI3
aI3
aI3
aI2
aI2
aI4
aI2
aI3
aI4
aI4
aI5
aI5
aI4
aI4
aI4
aI3
aI4
aI4
aI5
aI4
aI3
aI3
aI4
aI3
aI4
aI5
aI1
aI5
aI3
aI4
aI2
aI3
aI2
aI3
aI1
aI3
aI4
aI3
aI5
aI2
aI3
aI2
aI4
aI2
aI5
aI3
aI4
aI4
aI3
aI3
aI1
aI3
aI2
aI4
aI2
aI5
aI4
aI4
aI5
aI1
aI2
aI4
aI1
aI2
aI4
aI2
aI1
aI0
aI1
aI2
aI2
aI2
aI0
aI4
aI2
aI3
aI0
aI3
aI0
aI5
aI5
aI5
aI5
aI4
aI5
aI2
aI4
aI3
aI3
aI3
aI5
aI4
aI3
aI2
aI3
aI1
aI3
aI2
aI3
aI3
aI4
aI4
aI5
aI5
aI2
aI5
aI3
aI5
aI5
aI5
aI4
aI4
aI5
aI3
aI4
aI4
aI4
aI5
aI3
aI3
aI2
aI2
aI3
aI3
aI2
aI4
aI4
aI3
aI3
aI4
aI3
aI3
aI2
aI5
aI2
aI0
aI3
aI4
aI3
aI4
aI5
aI3
aI2
aI3
aI2
aI2
aI3
aI2
aI3
aI5
aI3
aI5
aI3
aI3
aI3
aI4
aI5
aI3
aI2
aI2
aI4
aI3
aI2
aI5
aI2
aI3
aI3
aI3
aI4
aI5
aI3
aI2
aI4
aI3
aI3
aI1
aI4
aI4
aI4
aI5
aI2
aI2
aI3
aI3
aI5
aI3
aI2
aI5
aI2
aI4
aI3
aI3
aI2
aI4
aI3
aI4
aI3
aI3
aI5
aI3
aI4
aI3
aI4
aI2
aI4
aI4
aI4
aI5
aI5
aI4
aI3
aI3
aI4
aI5
aI2
aI4
aI5
aI3
aI4
aI3
aI2
aI1
aI1
aI4
aI3
aI3
aI1
aI4
aI4
aI2
aI1
aI4
aI4
aI3
aI5
aI4
aI2
aI2
aI2
aI3
aI3
aI3
aI3
aI3
aI4
aI1
aI2
aI2
aI4
aI4
aI3
aI5
aI3
aI5
aI2
aI2
aI3
aI3
aI4
aI2
aI2
aI2
aI3
aI3
aI2
aI4
aI4
aI3
aI4
aI4
aI2
aI4
aI5
aI2
aI4
aI4
aI4
aI2
aI5
aI3
aI2
aI2
aI4
aI2
aI3
aI1
aI0
aI4
aI4
aI3
aI4
aI3
aI4
aI3
aI3
aI5
aI3
aI0
aI4
aI4
aI3
aI4
aI4
aI4
aI2
aI4
aI4
aI3
aI3
aI4
aI3
aI1
aI1
aI3
aI4
aI4
aI1
aI2
aI2
aI2
aI3
aI4
aI5
aI3
aI2
aI3
aI2
aI3
aI3
aI2
aI2
aI5
aI1
aI2
aI3
aI2
aI4
aI3
aI4
aI1
aI3
aI0
aI3
aI2
aI2
aI4
aI4
aI3
aI2
aI3
aI2
aI4
aI2
aI2
aI3
aI3
aI3
aI2
aI3
aI3
aI5
aI3
aI4
aI0
aI4
aI4
aI4
aI1
aI4
aI3
aI2
aI0
aI3
aI2
aI4
aI2
aI2
aI4
aI4
aI2
aI2
aI3
aI2
aI4
aI3
aI3
aI4
aI3
aI5
aI4
aI3
aI3
aI4
aI5
aI4
aI3
aI3
aI3
aI4
aI1
aI3
aI2
aI2
aI3
aI3
aI4
aI4
aI2
aI2
aI3
aI2
aI3
aI3
aI4
aI2
aI0
aI3
aI2
aI3
aI4
aI3
aI4
aI2
aI2
aI2
aI2
aI2
aI2
aI3
aI4
aI4
aI4
aI3
aI5
aI4
aI3
aI2
aI4
aI4
aI2
aI1
aI3
aI4
aI4
aI3
aI2
aI4
aI4
aI4
aI2
aI3
aI5
aI3
aI4
aI4
aI3
aI3
aI3
aI2
aI3
aI3
aI4
aI3
aI3
aI2
aI3
aI2
aI3
aI5
aI4
aI4
aI4
aI2
aI5
aI4
aI4
aI4
aI4
aI3
aI3
aI3
aI2
aI3
aI4
aI1
aI4
aI2
aI3
aI2
aI3
aI3
aI4
aI3
aI3
aI3
aI2
aI2
aI1
aI2
aI5
aI5
aI4
aI5
aI3
aI4
aI3
aI0
aI4
aI4
aI2
aI5
aI5
aI4
aI4
aI4
aI4
aI5
aI5
aI5
aI2
aI5
aI3
aI4
aI3
aI3
aI5
aI5
aI3
aI0
aI4
aI5
aI4
aI4
aI5
aI2
aI5
aI4
aI5
aI2
aI5
aI3
aI3
aI5
aI3
aI5
aI5
aI3
aI3
aI4
aI4
aI2
aI3
aI0
aI2
aI2
aI4
aI4
aI5
aI2
aI1
aI4
aI4
aI3
aI5
aI3
aI5
aI3
aI5
aI5
aI0
aI1
aI3
aI5
aI5
aI5
aI3
aI4
aI2
aI5
aI3
aI3
aI4
aI3
aI4
aI3
aI5
aI3
aI3
aI5
aI3
aI2
aI4
aI1
aI0
aI2
aI5
aI3
aI5
aI2
aI5
aI4
aI4
aI5
aI4
aI5
aI2
aI5
aI3
aI2
aI3
aI5
aI3
aI3
aI5
aI3
aI5
aI3
aI5
aI5
aI4
aI5
aI2
aI4
aI5
aI3
aI4
aI4
aI2
aI5
aI5
aI5
aI4
aI4
aI5
aI3
aI0
aI1
aI4
aI3
aI5
aI3
aI5
aI0
aI2
aI3
aI4
aI2
aI2
aI1
aI4
aI3
aI2
aI4
aI4
aI3
aI5
aI5
aI4
aI3
aI4
aI5
aI4
aI5
aI3
aI2
aI4
aI4
aI2
aI5
aI3
aI2
aI0
aI3
aI2
aI4
aI4
aI3
aI3
aI0
aI2
aI1
aI0
aI0
aI0
aI5
aI3
aI3
aI0
aI4
aI2
aI5
aI4
aI2
aI1
aI0
aI2
aI3
aI5
aI0
aI4
aI2
aI0
aI3
aI3
aI4
aI4
aI4
aI3
aI2
aI4
aI0
aI3
aI5
aI5
aI4
aI5
aI3
aI2
aI4
aI1
aI2
aI2
aI4
aI2
aI4
aI4
aI4
aI4
aI4
aI3
aI5
aI5
aI3
aI3
aI4
aI1
aI5
aI5
aI3
aI4
aI5
aI3
aI5
aI3
aI5
aI5
aI3
aI5
aI2
aI5
aI5
aI3
aI2
aI3
aI0
aI5
aI4
aI4
aI3
aI2
aI4
aI0
aI3
aI3
aI0
aI5
aI3
aI0
aI1
aI3
aI5
aI2
aI5
aI4
aI5
aI2
aI4
aI1
aI3
aI5
aI2
aI5
aI5
aI4
aI1
aI3
aI3
aI3
aI3
aI3
aI0
aI5
aI4
aI2
aI5
aI5
aI5
aI3
aI5
aI3
aI5
aI4
aI5
aI5
aI4
aI4
aI5
aI3
aI2
aI3
aI4
aI4
aI5
aI0
aI4
aI4
aI5
aI4
aI3
aI3
aI5
aI2
aI0
aI4
aI4
aI3
aI5
aI5
aI2
aI5
aI5
aI3
aI5
aI5
aI5
aI4
aI5
aI4
aI2
aI3
aI5
aI3
aI3
aI4
aI4
aI2
aI1
aI3
aI3
aI4
aI2
aI0
aI1
aI0
aI2
aI5
aI0
aI1
aI2
aI4
aI5
aI5
aI5
aI5
aI4
aI3
aI4
aI5
aI4
aI4
aI4
aI3
aI4
aI4
aI5
aI5
aI4
aI4
aI3
aI5
aI5
aI5
aI4
aI5
aI4
aI5
aI3
aI3
aI5
aI5
aI5
aI1
aI2
aI2
aI5
aI3
aI4
aI5
aI5
aI5
aI4
aI3
aI4
aI5
aI4
aI3
aI5
aI4
aI5
aI4
aI3
aI5
aI5
aI2
aI3
aI5
aI1
aI5
aI3
aI3
aI5
aI4
aI3
aI2
aI4
aI0
aI5
aI4
aI3
aI4
aI4
aI3
aI2
aI3
aI3
aI5
aI4
aI3
aI5
aI4
aI2
aI4
aI5
aI5
aI3
aI4
aI5
aI5
aI4
aI3
aI2
aI3
aI3
aI3
aI4
aI0
aI1
aI2
aI4
aI5
aI1
aI5
aI5
aI0
aI0
aI0
aI3
aI3
aI4
aI3
aI5
aI5
aI2
aI4
aI5
aI3
aI3
aI5
aI5
aI3
aI3
aI3
aI5
aI4
aI3
aI4
aI3
aI2
aI3
aI4
aI5
aI4
aI2
aI3
aI4
aI5
aI5
aI5
aI5
aI1
aI3
aI3
aI3
aI5
aI5
aI5
aI4
aI5
aI3
aI5
aI3
aI3
aI4
aI4
aI5
aI5
aI3
aI4
aI5
aI2
aI3
aI5
aI5
aI5
aI3
aI3
aI5
aI5
aI2
aI3
aI5
aI5
aI5
aI4
aI5
aI5
aI5
aI4
aI2
aI4
aI4
aI4
aI5
aI1
aI0
aI1
aI3
aI3
aI4
aI1
aI4
aI4
aI4
aI0
aI5
aI2
aI3
aI4
aI5
aI1
aI3
aI5
aI5
aI5
aI4
aI0
aI3
aI4
aI5
aI4
aI4
aI3
aI1
aI2
aI4
aI2
aI4
aI3
aI5
aI4
aI1
aI2
aI5
aI3
aI3
aI3
aI5
aI5
aI4
aI1
aI5
aI4
aI4
aI5
aI3
aI1
aI1
aI1
aI0
aI5
asI2011
(lp7
I4
aI5
aI5
aI3
aI2
aI4
aI3
aI3
aI2
aI3
aI4
aI5
aI3
aI3
aI0
aI4
aI4
aI3
aI1
aI0
aI1
aI5
aI5
aI2
aI4
aI3
aI2
aI5
aI3
aI3
aI3
aI2
aI3
aI2
aI3
aI1
aI3
aI0
aI3
aI2
aI1
aI3
aI3
aI0
aI3
aI3
aI5
aI3
aI3
aI4
aI3
aI4
aI0
aI5
aI3
aI5
aI0
aI1
aI1
aI0
aI0
aI5
aI3
aI5
aI4
aI3
aI4
aI5
aI3
aI2
aI4
aI3
aI5
aI4
aI4
aI4
aI4
aI0
aI2
aI2
aI2
aI3
aI5
aI4
aI5
aI3
aI3
aI4
aI5
aI3
aI3
aI2
aI4
aI5
aI3
aI3
aI2
aI3
aI5
aI5
aI5
aI5
aI3
aI4
aI2
aI4
aI4
aI4
aI1
aI4
aI1
aI0
aI4
aI1
aI1
aI5
aI4
aI4
aI1
aI0
aI3
aI3
aI3
aI4
aI4
aI0
aI2
aI3
aI1
aI2
aI3
aI5
aI3
aI3
aI3
aI5
aI4
aI2
aI3
aI4
aI3
aI5
aI5
aI4
aI3
aI4
aI3
aI3
aI4
aI4
aI3
aI2
aI5
aI4
aI5
aI3
aI5
aI3
aI1
aI3
aI1
aI4
aI5
aI1
aI1
aI2
aI4
aI1
aI2
aI3
aI3
aI3
aI3
aI5
aI4
aI4
aI3
aI4
aI5
aI0
aI2
aI3
aI4
aI2
aI5
aI3
aI5
aI4
aI3
aI4
aI4
aI2
aI4
aI3
aI4
aI3
aI0
aI4
aI5
aI3
aI5
aI4
aI3
aI4
aI2
aI2
aI3
aI2
aI1
aI0
aI3
aI0
aI4
aI1
aI1
aI3
aI0
aI2
aI1
aI1
aI3
aI4
aI0
aI1
aI3
aI3
aI1
aI0
aI0
aI4
aI0
aI5
aI0
aI5
aI4
aI1
aI5
aI5
aI3
aI4
aI3
aI0
aI2
aI5
aI3
aI3
aI3
aI4
aI4
aI4
aI1
aI4
aI1
aI5
aI5
aI1
aI3
aI4
aI5
aI1
aI2
aI5
aI3
aI4
aI1
aI0
aI1
aI0
aI0
aI0
aI0
aI5
aI3
aI5
aI4
aI4
aI3
aI5
aI1
aI4
aI3
aI4
aI3
aI4
aI3
aI0
aI3
aI4
aI5
aI4
aI5
aI5
aI5
aI2
aI0
aI1
aI1
aI0
aI1
aI0
aI0
aI3
aI2
aI1
aI2
aI0
aI0
aI5
aI3
aI0
aI1
aI3
aI0
aI3
aI0
aI0
aI0
aI1
aI0
aI0
aI5
aI1
aI1
aI0
aI0
aI2
aI2
aI2
aI4
aI2
aI2
aI1
aI1
aI1
aI5
aI2
aI4
aI1
aI2
aI0
aI2
aI3
aI3
aI2
aI2
aI2
aI0
aI3
aI2
aI0
aI1
aI3
aI1
aI3
aI0
aI5
aI4
aI3
aI2
aI2
aI4
aI0
aI1
aI0
aI3
aI3
aI1
aI1
aI0
aI0
aI0
aI0
aI2
aI2
aI3
aI1
aI1
aI1
aI1
aI1
aI1
aI4
aI0
aI4
aI5
aI5
aI0
aI0
aI0
aI0
aI2
aI0
aI4
aI4
aI4
aI0
aI0
aI5
aI4
aI5
aI1
aI5
aI1
aI2
aI2
aI5
aI4
aI5
aI3
aI5
aI4
aI2
aI2
aI0
aI0
aI5
aI5
aI5
aI3
aI3
aI4
aI5
aI2
aI0
aI4
aI5
aI2
aI1
aI3
aI3
aI1
aI2
aI4
aI0
aI0
aI5
aI3
aI5
aI2
aI2
aI5
aI0
aI5
aI4
aI2
aI0
aI5
aI1
aI2
aI0
aI3
aI1
aI3
aI3
aI3
aI5
aI0
aI3
aI0
aI1
aI0
aI3
aI0
aI2
aI4
aI2
aI0
aI3
aI3
aI4
aI3
aI4
aI4
aI3
aI0
aI0
aI0
aI1
aI3
aI2
aI1
aI2
aI3
aI2
aI4
aI2
aI2
aI4
aI2
aI2
aI4
aI2
aI5
aI4
aI5
aI4
aI1
aI3
aI5
aI3
aI1
aI3
aI4
aI1
aI1
aI2
aI0
aI3
aI1
aI4
aI3
aI1
aI2
aI2
aI4
aI1
aI2
aI2
aI3
aI1
aI0
aI0
aI3
aI2
aI1
aI0
aI0
aI1
aI0
aI0
aI3
aI2
aI1
aI3
aI3
aI4
aI3
aI5
aI4
aI5
aI3
aI4
aI4
aI3
aI3
aI5
aI4
aI5
aI5
aI4
aI3
aI3
aI4
aI4
aI5
aI3
aI4
aI4
aI1
aI3
aI5
aI4
aI3
aI4
aI2
aI5
aI2
aI3
aI0
aI0
aI3
aI4
aI3
aI4
aI0
aI5
aI1
aI3
aI3
aI3
aI3
aI4
aI5
aI4
aI3
aI2
aI5
aI4
aI3
aI3
aI4
aI2
aI4
aI0
aI0
aI1
aI0
aI2
aI2
aI1
aI0
aI4
aI2
aI3
aI4
aI1
aI5
aI0
aI1
aI1
aI5
aI5
aI5
aI3
aI4
aI5
aI4
aI3
aI3
aI5
aI5
aI3
aI5
aI4
aI4
aI5
aI4
aI5
aI2
aI3
aI4
aI4
aI5
aI2
aI5
aI0
aI0
aI3
aI0
aI2
aI2
aI4
aI4
aI3
aI2
aI3
aI4
aI5
aI4
aI4
aI3
aI3
aI5
aI4
aI5
aI2
aI3
aI5
aI4
aI4
aI2
aI0
aI1
aI4
aI2
aI1
aI1
aI3
aI4
aI2
aI2
aI5
aI4
aI3
aI5
aI4
aI5
aI5
aI4
aI2
aI1
aI3
aI2
aI0
aI0
aI1
aI0
aI3
aI0
aI0
aI1
aI3
aI4
aI4
aI5
aI0
aI0
aI4
aI0
aI0
aI0
aI3
aI0
aI3
aI0
aI0
aI5
aI3
aI4
aI1
aI1
aI2
aI3
aI0
aI4
aI0
aI2
aI4
aI4
aI3
aI4
aI4
aI2
aI0
aI0
aI2
aI1
aI0
aI2
aI1
aI0
aI1
aI4
aI5
aI4
aI5
aI3
aI5
aI1
aI3
aI0
aI2
aI2
aI4
aI4
aI4
aI4
aI1
aI0
aI2
aI0
aI0
aI4
aI4
aI3
aI2
aI1
aI3
aI0
aI1
aI0
aI1
aI1
aI5
aI2
aI3
aI4
aI5
aI4
aI0
aI4
aI0
aI3
aI5
aI1
aI2
aI4
aI2
aI4
aI2
aI1
aI5
aI4
aI5
aI3
aI3
aI4
aI5
aI5
aI4
aI5
aI4
aI2
aI1
aI3
aI2
aI2
aI2
aI3
aI3
aI3
aI2
aI2
aI4
aI4
aI1
aI4
aI1
aI5
aI5
aI3
aI4
aI3
aI3
aI5
aI4
aI3
aI2
aI2
aI5
aI5
aI3
aI2
aI4
aI4
aI3
aI3
aI3
aI5
aI4
aI5
aI5
aI2
aI3
aI5
aI5
aI3
aI5
aI1
aI0
aI5
aI5
aI0
aI5
aI2
aI5
aI4
aI3
aI3
aI3
aI5
aI3
aI4
aI4
aI2
aI3
aI2
aI2
aI3
aI2
aI3
aI1
aI0
aI2
aI3
aI2
aI3
aI5
aI3
aI5
aI4
aI3
aI5
aI3
aI2
aI3
aI1
aI3
aI3
aI3
aI4
aI3
aI4
aI3
aI3
aI5
aI5
aI3
aI3
aI5
aI3
aI1
aI4
aI5
aI3
aI4
aI5
aI5
aI4
aI4
aI4
aI5
aI5
aI4
aI4
aI5
aI0
aI5
aI3
aI3
aI5
aI5
aI5
aI4
aI4
aI4
aI4
aI2
aI5
aI4
aI5
aI5
aI0
aI3
aI5
aI3
aI5
aI5
aI0
aI2
aI0
aI3
aI1
aI2
aI2
aI5
aI4
aI1
aI5
aI4
aI0
aI5
aI0
aI1
aI4
aI0
aI4
aI2
aI5
aI5
aI5
aI5
aI4
aI3
aI5
aI4
aI3
aI1
aI1
aI0
aI0
aI2
aI0
aI5
aI2
aI3
aI0
aI0
aI0
aI0
aI3
aI3
aI2
aI0
aI1
aI0
aI0
aI3
aI0
aI3
aI3
aI0
aI4
aI2
aI1
aI2
aI0
aI3
aI4
aI4
aI1
aI0
aI4
aI2
aI2
aI3
aI2
aI3
aI4
aI0
aI5
aI1
aI2
aI0
aI3
aI2
aI1
aI3
aI0
aI3
aI4
aI3
aI0
aI2
aI2
aI4
aI4
aI4
aI3
aI1
aI0
aI4
aI3
aI3
aI2
aI2
aI4
aI4
aI3
aI4
aI3
aI3
aI4
aI4
aI4
aI2
aI2
aI2
aI5
aI2
aI4
aI1
aI0
aI1
aI3
aI1
aI0
aI0
aI1
aI4
aI3
aI3
aI1
aI0
aI0
aI1
aI2
aI0
aI3
aI5
aI4
aI3
aI2
aI4
aI5
aI4
aI5
aI5
aI4
aI2
aI3
aI3
aI3
aI3
aI3
aI3
aI0
aI0
aI0
aI2
aI0
aI1
aI0
aI3
aI3
aI4
aI4
aI2
aI4
aI5
aI1
aI5
aI5
aI2
aI2
aI5
aI1
aI5
aI3
aI0
aI3
aI3
aI4
aI0
aI5
aI2
aI1
aI0
aI2
aI0
aI3
aI0
aI2
aI1
aI4
aI0
aI4
aI2
aI4
aI4
aI4
aI4
aI5
aI5
aI3
aI1
aI5
aI4
aI2
aI4
aI2
aI4
aI2
aI4
aI3
aI4
aI1
aI3
aI1
aI5
aI3
aI1
aI3
aI0
aI3
aI2
aI4
aI5
aI5
aI5
aI4
aI5
aI4
aI0
aI4
aI5
aI3
aI2
aI4
aI4
aI2
aI5
aI5
aI4
aI3
aI4
aI2
aI4
aI0
aI3
aI0
aI3
aI4
aI2
aI3
aI4
aI4
aI4
aI4
aI3
aI3
aI3
aI4
aI4
aI2
aI3
aI1
aI0
aI3
aI4
aI3
aI3
aI5
aI5
aI5
aI5
aI2
aI4
aI0
aI3
aI5
aI1
aI3
aI0
aI2
aI2
aI4
aI4
aI2
aI5
aI3
aI1
aI2
aI3
aI3
aI2
aI4
aI3
aI3
aI4
aI3
aI4
aI3
aI3
aI0
aI3
aI1
aI3
aI3
aI2
aI3
aI3
aI4
aI2
aI2
aI4
aI2
aI4
aI2
aI5
aI3
aI5
aI1
aI4
aI3
aI4
aI4
aI2
aI2
aI3
aI3
aI3
aI4
aI3
aI2
aI3
aI3
aI3
aI3
aI5
aI2
aI4
aI4
aI0
aI3
aI5
aI2
aI3
aI2
aI0
aI4
aI0
aI5
aI1
aI2
aI5
aI2
aI5
aI5
aI3
aI5
aI5
aI2
aI3
aI4
aI3
aI5
aI4
aI1
aI3
aI3
aI3
aI0
aI5
aI5
aI4
aI2
aI2
aI4
aI5
aI4
aI3
aI3
aI2
aI4
aI3
aI0
aI3
aI3
aI5
aI4
aI5
aI2
aI3
aI3
aI5
aI3
aI3
aI5
aI4
aI2
aI4
aI4
aI4
aI5
aI5
aI4
aI4
aI1
aI0
aI3
aI3
aI4
aI2
aI4
aI4
aI3
aI1
aI2
aI4
aI3
aI2
aI2
aI1
aI0
aI0
aI2
aI3
aI3
aI2
aI5
aI5
aI1
aI1
aI4
aI1
aI4
aI0
aI4
aI5
aI4
aI3
aI3
aI2
aI3
aI3
aI0
aI3
aI4
aI2
aI2
aI0
aI1
aI5
aI3
aI3
aI3
aI5
aI4
aI2
aI4
aI2
aI4
aI5
aI3
aI1
aI5
aI1
aI4
aI4
aI4
aI3
aI4
aI2
aI3
aI3
aI2
aI4
aI4
aI5
aI3
aI3
aI3
aI2
aI3
aI3
aI2
aI4
aI5
aI4
aI2
aI5
aI4
aI2
aI4
aI5
aI3
aI3
aI3
aI3
aI2
aI4
aI4
aI4
aI1
aI2
aI0
aI4
aI3
aI1
aI2
aI3
aI4
aI3
aI4
aI5
aI3
aI4
aI4
aI5
aI2
aI5
aI5
aI0
aI1
aI3
aI3
aI0
aI2
aI5
aI1
aI0
aI3
aI2
aI5
aI5
aI4
aI2
aI3
aI3
aI3
aI2
aI2
aI2
aI4
aI4
aI4
aI4
aI2
aI5
aI3
aI4
aI1
aI1
aI0
aI0
aI2
aI0
aI3
aI3
aI0
aI4
aI4
aI2
aI2
aI4
aI3
aI3
aI1
aI2
aI1
aI3
aI4
aI3
aI3
aI5
aI3
aI4
aI3
aI5
aI5
aI4
aI5
aI5
aI3
aI5
aI4
aI3
aI3
aI5
aI3
aI3
aI4
aI0
aI2
aI4
aI4
aI2
aI1
aI3
aI5
aI3
aI5
aI4
aI3
aI2
aI0
aI5
aI2
aI3
aI2
aI0
aI0
aI3
aI5
aI5
aI4
aI3
aI2
aI5
aI4
aI5
aI5
aI5
aI5
aI5
aI5
aI3
aI3
aI5
aI5
aI1
aI4
aI5
aI2
aI5
aI4
aI4
aI3
aI4
aI5
aI4
aI4
aI5
aI5
aI4
aI5
aI5
aI5
aI1
aI5
aI4
aI5
aI5
aI1
aI4
aI5
aI2
aI2
aI3
aI5
aI4
aI5
aI5
aI5
aI5
aI5
aI5
aI5
aI0
aI3
aI1
aI2
aI2
aI0
aI4
aI3
aI0
aI2
aI5
aI4
aI1
aI1
aI3
aI0
aI1
aI0
aI4
aI3
aI1
aI0
aI0
aI4
aI5
aI5
aI5
aI5
aI3
aI4
aI5
aI5
aI1
aI1
aI3
aI3
aI1
aI5
aI1
aI0
aI0
aI0
aI5
aI4
aI3
aI3
aI4
aI0
aI0
aI3
aI5
aI1
aI1
aI0
aI1
aI3
aI3
aI4
aI5
aI0
aI1
aI0
aI5
aI1
aI4
aI3
aI4
aI3
aI4
aI4
aI5
aI1
aI2
aI5
aI5
aI2
aI5
aI3
aI3
aI5
aI5
aI4
aI4
aI4
aI5
aI1
aI4
aI5
aI5
aI3
aI0
aI1
aI4
aI4
aI0
aI3
aI4
aI3
aI3
aI3
aI4
aI5
aI5
aI4
aI4
aI5
aI5
aI3
aI4
aI4
aI5
aI4
aI3
aI5
aI4
aI1
aI1
aI4
aI0
aI5
aI2
aI0
aI0
aI0
aI3
aI5
aI2
aI1
aI0
aI1
aI2
aI4
aI1
aI1
aI3
aI3
aI4
aI2
aI1
aI3
aI4
aI2
aI1
aI4
aI0
aI0
aI0
aI2
aI5
aI3
aI5
aI5
aI3
aI4
aI3
aI4
aI5
aI5
aI5
aI4
aI5
aI5
aI2
aI5
aI4
aI5
aI5
aI4
aI4
aI5
aI4
aI3
aI0
aI1
aI5
aI0
aI3
aI2
aI1
aI1
aI3
aI3
aI4
aI3
aI2
aI2
aI0
aI5
aI0
aI0
aI0
aI1
aI2
aI0
aI5
aI4
aI3
aI5
aI2
aI4
aI5
aI4
aI5
aI5
aI5
aI4
aI5
aI5
aI5
aI5
aI0
aI0
aI1
aI0
aI2
aI3
aI4
aI4
aI5
aI0
aI1
aI4
aI3
aI2
aI3
aI0
aI4
aI5
aI5
aI1
aI5
aI5
aI5
aI4
aI3
aI4
aI5
aI0
aI1
aI1
aI1
aI3
aI1
aI5
aI1
aI0
aI5
aI5
aI2
aI2
aI3
aI5
aI4
aI3
aI0
aI5
aI2
aI5
aI5
aI4
aI5
aI5
aI5
aI2
aI4
aI2
aI0
aI5
aI2
aI0
aI0
aI1
aI1
aI4
aI0
aI4
aI0
aI2
aI0
aI3
aI1
aI4
aI3
aI3
aI3
aI4
aI2
aI5
aI4
aI2
aI3
aI4
aI2
aI0
aI5
aI3
aI0
aI5
aI0
aI4
aI0
aI0
aI4
aI0
aI2
aI0
aI0
aI3
aI3
aI4
aI2
aI1
aI2
aI3
aI2
aI5
aI5
aI5
aI3
aI2
aI1
aI2
aI4
aI1
aI2
aI5
aI2
aI2
aI1
aI4
aI0
aI0
aI4
aI5
aI1
aI5
aI2
aI1
aI5
aI5
aI3
aI0
aI1
aI4
aI3
aI2
aI2
aI5
aI5
aI4
aI3
aI3
aI4
aI0
aI4
aI4
aI2
aI4
aI4
aI5
aI1
aI4
aI2
aI5
aI4
aI4
aI5
aI0
aI4
aI5
aI5
aI5
aI2
aI3
aI5
aI0
aI4
aI2
aI5
aI3
aI2
aI0
aI4
aI3
aI1
aI0
aI4
aI3
aI0
aI0
aI2
aI1
aI2
aI0
aI3
aI1
aI4
aI1
aI5
aI5
aI4
aI4
aI0
aI1
aI0
aI0
aI1
aI0
aI4
aI3
aI2
aI2
aI4
aI3
aI0
aI2
aI5
aI3
aI4
aI2
aI5
aI4
aI4
aI3
aI3
aI4
aI5
aI3
aI1
aI3
aI5
aI5
aI4
aI3
aI5
aI3
aI3
aI4
aI4
aI3
aI3
aI2
aI4
aI4
aI3
aI5
aI3
aI3
aI3
aI4
aI3
aI3
aI1
aI2
aI2
aI3
aI4
aI3
aI5
aI5
aI5
aI2
aI4
aI3
aI2
aI5
aI3
aI3
aI2
aI2
aI1
aI3
aI3
aI4
aI1
aI4
aI1
aI4
aI1
aI5
aI5
aI5
aI4
aI5
aI4
aI5
aI3
aI5
aI4
aI5
aI4
aI3
aI1
aI3
aI1
aI4
aI0
aI3
aI2
aI3
aI4
aI1
aI5
aI5
aI2
aI5
aI3
aI3
aI5
aI3
aI5
aI1
aI1
aI3
aI5
aI4
aI4
aI0
aI0
aI3
aI4
aI5
aI3
aI3
aI4
aI4
aI4
aI3
aI1
aI0
aI4
aI0
aI5
aI3
aI2
aI5
aI4
aI4
aI5
aI4
aI0
aI1
aI5
aI4
aI0
aI2
aI1
aI1
aI5
aI4
aI4
aI0
aI0
aI2
aI2
aI2
aI2
aI4
aI2
aI3
aI2
aI2
aI4
aI3
aI2
aI0
aI1
aI5
aI0
aI1
aI0
aI5
aI3
aI1
aI2
aI2
aI3
aI5
aI3
aI2
aI3
aI4
aI2
aI1
aI3
aI2
aI5
aI3
aI1
aI1
aI3
aI5
aI4
aI4
aI3
aI4
aI2
aI3
aI1
aI3
aI4
aI2
aI1
aI0
aI0
aI4
aI0
aI3
aI2
aI2
aI2
aI5
aI5
aI5
aI5
aI5
aI5
aI1
aI4
aI4
aI3
aI5
aI5
aI1
aI5
aI3
aI4
aI2
aI3
aI5
aI3
aI0
aI0
aI4
aI5
aI3
aI4
aI5
aI5
aI2
aI2
aI3
aI5
aI3
aI4
aI2
aI3
aI2
aI2
aI5
aI2
aI4
aI1
aI5
aI3
aI4
aI1
aI3
aI5
aI0
aI5
aI5
aI1
aI3
aI3
aI2
aI3
aI5
aI5
aI4
aI5
aI5
aI4
aI3
aI5
aI5
aI3
aI2
aI1
aI4
aI3
aI5
aI2
aI4
aI3
aI3
aI4
aI1
aI1
aI5
aI1
aI2
aI5
aI4
aI2
aI2
aI2
aI0
aI3
aI0
aI1
aI5
aI1
aI2
aI2
aI2
aI4
aI2
aI5
aI3
aI3
aI4
aI5
aI4
aI3
aI3
aI4
aI2
aI4
aI5
aI3
aI3
aI5
aI4
aI3
aI4
aI4
aI3
aI3
aI3
aI0
aI2
aI1
aI3
aI1
aI2
aI4
aI3
aI5
aI2
aI2
aI4
aI4
aI5
aI1
aI4
aI5
aI3
aI1
aI4
aI4
aI2
aI1
aI4
aI2
aI1
aI0
aI0
aI3
aI2
aI4
aI2
aI3
aI1
aI2
aI0
aI0
aI5
aI1
aI1
aI4
aI3
aI3
aI3
aI5
aI5
aI3
aI2
aI4
aI4
aI3
aI0
aI2
aI4
aI4
aI2
aI3
aI3
aI1
aI1
aI4
aI2
aI2
aI1
aI1
aI2
aI4
aI3
aI0
aI1
aI2
aI0
aI3
aI4
aI4
aI5
aI5
aI0
aI5
aI4
aI4
aI3
aI4
aI5
aI4
aI5
aI4
aI3
aI4
aI3
aI2
aI4
aI5
aI3
aI4
aI5
aI2
aI3
aI5
aI0
aI4
aI4
aI5
aI4
aI3
aI5
aI2
aI4
aI0
aI0
aI3
aI4
aI1
aI1
aI2
aI4
aI2
aI3
aI1
aI1
aI3
aI0
aI3
aI0
aI4
aI2
aI4
aI4
aI3
aI3
aI1
aI4
aI3
aI5
aI4
aI3
aI1
aI3
aI2
aI0
aI4
aI3
aI5
aI3
aI3
aI1
aI3
aI1
aI5
aI2
aI3
aI3
aI0
aI1
aI5
aI5
aI3
aI3
aI5
aI4
aI1
aI3
aI2
aI2
aI3
aI3
aI1
aI1
aI0
aI2
aI3
aI1
aI4
aI0
aI3
aI3
aI2
aI3
aI3
aI4
aI1
aI3
aI2
aI1
aI0
aI2
aI3
aI3
aI0
aI5
aI1
aI5
aI3
aI3
aI3
aI5
aI4
aI4
aI5
aI4
aI5
aI5
aI0
aI4
aI1
aI2
aI5
aI4
aI4
aI3
aI4
aI2
aI3
aI2
aI5
aI3
aI3
aI1
aI3
aI2
aI4
aI4
aI5
aI5
aI5
aI4
aI5
aI4
aI3
aI3
aI5
aI5
aI5
aI4
aI4
aI5
aI5
aI4
aI1
aI3
aI2
aI3
aI3
aI0
aI2
aI5
aI0
aI2
aI0
aI2
aI3
aI3
aI0
aI5
aI0
aI5
aI3
aI2
aI3
aI5
aI2
aI5
aI3
aI3
aI4
aI0
aI2
aI3
aI2
aI5
aI0
aI3
aI4
aI4
aI0
aI5
aI4
aI4
aI3
aI5
aI2
aI0
aI4
aI5
aI5
aI4
aI3
aI3
aI2
aI3
aI5
aI0
aI0
aI1
aI1
aI0
aI2
aI3
aI0
aI0
aI3
aI3
aI5
aI4
aI1
aI5
aI4
aI3
aI1
aI3
aI3
aI1
aI1
aI0
aI2
aI4
aI3
aI4
aI4
aI0
aI0
aI2
aI0
aI2
aI0
aI0
aI3
aI3
aI2
aI4
aI4
aI4
aI5
aI5
aI2
aI4
aI5
aI4
aI3
aI5
aI5
aI5
aI3
aI3
aI4
aI1
aI1
aI5
aI5
aI3
aI1
aI4
aI5
aI5
aI4
aI0
aI4
aI0
aI4
aI1
aI2
aI0
aI0
aI3
aI1
aI2
aI3
aI0
aI1
aI3
aI1
aI1
aI4
aI3
aI5
aI3
aI3
aI4
aI3
aI3
aI5
aI4
aI2
aI5
aI1
aI5
aI5
aI1
aI2
aI4
aI2
aI5
aI1
aI4
aI4
aI5
aI3
aI1
aI3
aI2
aI2
aI0
aI0
aI5
aI0
aI0
aI0
aI0
aI0
aI0
aI1
aI2
aI0
aI0
aI0
aI0
aI0
aI1
aI2
aI0
aI0
aI0
aI3
aI2
aI5
aI4
aI4
aI0
aI0
aI3
aI1
aI5
aI2
aI3
aI0
aI1
aI0
aI2
aI0
aI0
aI0
aI0
aI1
aI0
aI2
aI3
aI0
aI2
aI4
aI4
aI3
aI4
aI2
aI5
aI5
aI5
aI5
aI5
aI5
aI5
aI3
aI2
aI0
aI2
aI1
aI0
aI1
aI4
aI5
aI5
aI0
aI2
aI4
aI4
aI5
aI1
aI3
aI2
aI0
aI0
aI0
aI0
aI4
aI1
aI2
aI1
aI2
aI0
aI0
aI0
aI0
aI5
aI0
aI1
aI0
aI3
aI3
aI2
aI1
aI4
aI0
aI0
aI1
aI1
aI1
aI4
aI2
aI0
aI2
aI0
aI1
aI0
aI0
aI2
aI2
aI0
aI0
aI2
aI0
aI1
aI0
aI1
aI0
aI0
aI4
aI5
aI5
aI5
aI3
aI4
aI5
aI5
aI3
aI3
aI2
aI3
aI4
aI3
aI3
aI4
aI0
aI3
aI5
aI5
aI1
aI5
aI1
aI5
aI2
aI4
aI5
aI3
aI4
aI2
aI5
aI5
aI5
aI5
aI5
aI4
aI5
aI3
aI5
aI5
aI4
aI4
aI5
aI4
aI5
aI4
aI1
aI3
aI5
aI3
aI3
aI5
aI5
aI5
aI5
aI5
aI3
aI5
aI5
aI4
aI5
aI2
aI2
aI2
aI3
aI5
aI4
aI3
aI4
aI5
aI4
aI1
aI5
aI0
aI0
aI2
aI0
aI1
aI1
aI2
aI1
aI3
aI1
aI2
aI1
aI5
aI2
aI4
aI3
aI2
aI0
aI4
aI0
aI3
aI3
aI2
aI1
aI4
aI0
aI2
aI3
aI0
aI4
aI2
aI4
aI2
aI4
aI4
aI0
aI4
aI5
aI3
aI0
aI3
aI2
aI0
aI1
aI0
aI0
aI0
aI4
aI0
aI2
aI5
aI0
aI2
aI5
aI4
aI5
aI4
aI0
aI0
aI3
aI3
aI3
aI5
aI4
aI1
aI0
aI2
aI5
aI0
aI1
aI0
aI5
aI3
aI0
aI3
aI3
aI5
aI3
aI1
aI3
aI5
aI1
aI5
aI4
aI1
aI0
aI3
aI0
aI2
aI3
aI1
aI1
aI2
aI1
aI0
aI0
aI5
aI0
aI2
aI0
aI3
aI4
aI1
aI5
aI5
aI3
aI5
aI3
aI4
aI1
aI0
aI0
aI0
aI0
aI0
aI5
aI4
aI4
aI5
aI5
aI5
aI5
aI1
aI4
aI2
aI4
aI0
aI5
aI0
aI4
aI5
aI0
aI5
aI1
aI2
aI3
aI0
aI1
aI4
aI2
aI1
aI1
aI2
aI5
aI0
aI2
aI0
aI4
aI1
aI3
aI1
aI2
aI0
aI5
aI5
aI2
aI5
aI5
aI5
aI0
aI0
aI1
aI1
aI1
aI1
aI0
aI3
aI2
aI0
aI2
aI0
aI2
aI1
aI4
aI4
aI3
aI5
aI1
aI5
aI3
aI5
aI2
aI5
aI0
aI3
aI4
aI5
aI5
aI3
aI5
aI3
aI3
aI0
aI1
aI3
aI5
aI5
aI3
aI3
aI3
aI4
aI4
aI5
aI4
aI3
aI2
aI3
aI2
aI1
aI5
aI2
aI3
aI2
aI3
aI2
aI0
aI0
aI0
aI0
aI4
aI4
aI2
aI0
aI1
aI3
aI2
aI2
aI2
aI2
aI0
aI3
aI4
aI3
aI3
aI3
aI4
aI1
aI3
aI4
aI4
aI3
aI4
aI0
aI4
aI3
aI5
aI3
aI2
aI5
aI2
aI2
aI2
aI5
aI4
aI0
aI3
aI3
aI3
aI1
aI3
aI2
aI1
aI3
aI3
aI4
aI1
aI1
aI0
aI1
aI3
aI1
aI4
aI3
aI1
aI2
aI3
aI5
aI1
aI1
aI3
aI2
aI3
aI2
aI4
aI4
aI1
aI1
aI3
aI4
aI5
aI4
aI5
aI3
aI3
aI2
aI3
aI4
aI2
aI1
aI1
aI2
aI1
aI2
aI5
aI4
aI3
aI4
aI4
aI2
aI3
aI4
aI5
aI1
aI3
aI2
aI2
aI5
aI4
aI4
aI4
aI5
aI4
aI4
aI2
aI4
aI3
aI3
aI5
aI4
aI1
aI5
aI4
aI3
aI2
aI2
aI1
aI0
aI4
aI2
aI2
aI2
aI0
aI3
aI5
aI1
aI4
aI4
aI4
aI3
aI1
aI2
aI5
aI1
aI4
aI2
aI1
aI4
aI3
aI4
aI3
aI4
aI1
aI2
aI0
aI3
aI5
aI4
aI3
aI4
aI3
aI0
aI4
aI3
aI5
aI4
aI4
aI5
aI5
aI4
aI2
aI4
aI4
aI2
aI4
aI2
aI2
aI1
aI1
aI4
aI2
aI5
aI3
aI3
aI3
aI3
aI2
aI3
aI4
aI4
aI0
aI0
aI3
aI2
aI3
aI2
aI5
aI2
aI5
aI2
aI5
aI3
aI3
aI2
aI2
aI3
aI3
aI5
aI4
aI3
aI4
aI3
aI3
aI1
aI4
aI2
aI3
aI3
aI4
aI3
aI5
aI4
aI5
aI1
aI3
aI2
aI5
aI2
aI2
aI1
aI1
aI3
aI5
aI4
aI4
aI5
aI3
aI1
aI3
aI2
aI3
aI2
aI3
aI1
aI4
aI5
aI3
aI5
aI4
aI3
aI4
aI3
aI2
aI4
aI3
aI0
aI0
aI3
aI2
aI2
aI3
aI2
aI4
aI2
aI2
aI4
aI2
aI3
aI5
aI3
aI2
aI3
aI3
aI3
aI2
aI4
aI0
aI1
aI0
aI3
aI4
aI4
aI4
aI3
aI4
aI4
aI3
aI2
aI4
aI2
aI4
aI4
aI1
aI1
aI3
aI4
aI3
aI2
aI3
aI4
aI3
aI5
aI1
aI2
aI3
aI3
aI2
aI3
aI2
aI1
aI1
aI3
aI4
aI3
aI3
aI2
aI4
aI2
aI3
aI0
aI0
aI3
aI2
aI5
aI4
aI5
aI2
aI1
aI5
aI4
aI3
aI5
aI3
aI4
aI3
aI4
aI4
aI3
aI3
aI4
aI3
aI2
aI2
aI3
aI1
aI3
aI3
aI3
aI3
aI5
aI3
aI4
aI3
aI2
aI3
aI3
aI3
aI5
aI3
aI3
aI0
aI3
aI2
aI1
aI0
aI2
aI3
aI1
aI4
aI3
aI3
aI2
aI3
aI3
aI2
aI4
aI3
aI3
aI4
aI3
aI3
aI1
aI4
aI3
aI1
aI4
aI2
aI2
aI4
aI3
aI1
aI3
aI3
aI4
aI3
aI5
aI3
aI5
aI2
aI3
aI3
aI3
aI2
aI3
aI3
aI3
aI3
aI2
aI3
aI3
aI5
aI2
aI2
aI4
aI2
aI3
aI4
aI2
aI3
aI3
aI3
aI3
aI2
aI4
aI0
aI0
aI2
aI1
aI2
aI4
aI4
aI3
aI0
aI0
aI0
aI0
aI4
aI5
aI3
aI2
aI2
aI2
aI2
aI3
aI4
aI4
aI4
aI2
aI5
aI4
aI4
aI5
aI3
aI4
aI3
aI4
aI3
aI2
aI1
aI1
aI3
aI3
aI2
aI2
aI3
aI5
aI2
aI4
aI3
aI3
aI4
aI5
aI3
aI2
aI2
aI1
aI3
aI2
aI2
aI3
aI4
aI1
aI2
aI4
aI3
aI0
aI1
aI4
aI2
aI2
aI4
aI2
aI4
aI2
aI3
aI4
aI5
aI0
aI3
aI2
aI4
aI3
aI3
aI2
aI2
aI3
aI2
aI3
aI4
aI3
aI5
aI3
aI0
aI4
aI2
aI4
aI3
aI3
aI2
aI3
aI3
aI1
aI3
aI2
aI3
aI4
aI3
aI2
aI4
aI4
aI3
aI2
aI4
aI4
aI4
aI3
aI3
aI5
aI2
aI3
aI1
aI2
aI3
aI2
aI4
aI5
aI4
aI3
aI5
aI5
aI4
aI5
aI3
aI3
aI4
aI4
aI3
aI3
aI5
aI3
aI3
aI1
aI3
aI4
aI1
aI2
aI3
aI0
aI3
aI3
aI4
aI3
aI4
aI3
aI4
aI3
aI2
aI3
aI2
aI3
aI1
aI3
aI4
aI2
aI2
aI3
aI5
aI4
aI4
aI0
aI4
aI4
aI2
aI3
aI3
aI4
aI2
aI1
aI0
aI3
aI3
aI2
aI4
aI3
aI2
aI2
aI2
aI1
aI4
aI4
aI3
aI3
aI4
aI4
aI2
aI2
aI3
aI4
aI4
aI3
aI0
aI3
aI3
aI2
aI3
aI3
aI5
aI0
aI1
aI4
aI3
aI3
aI1
aI3
aI3
aI4
aI2
aI3
aI3
aI3
aI4
aI3
aI5
aI2
aI4
aI3
aI4
aI3
aI3
aI3
aI2
aI4
aI3
aI3
aI3
aI4
aI3
aI3
aI3
aI2
aI1
aI2
aI3
aI4
aI3
aI2
aI4
aI1
aI3
aI2
aI4
aI2
aI4
aI4
aI2
aI2
aI3
aI3
aI3
aI3
aI4
aI4
aI3
aI3
aI2
aI4
aI3
aI3
aI3
aI2
aI3
aI2
aI2
aI1
aI1
aI1
aI3
aI3
aI3
aI3
aI2
aI4
aI2
aI3
aI4
aI5
aI1
aI4
aI4
aI4
aI5
aI5
aI3
aI4
aI4
aI3
aI3
aI1
aI4
aI4
aI1
aI4
aI3
aI4
aI5
aI2
aI4
aI5
aI4
aI5
aI5
aI2
aI1
aI4
aI5
aI2
aI5
aI5
aI3
aI4
aI4
aI4
aI5
aI5
aI3
aI2
aI5
aI4
aI4
aI3
aI4
aI4
aI2
aI2
aI3
aI1
aI1
aI1
aI0
aI4
aI2
aI5
aI4
aI4
aI3
aI5
aI5
aI3
aI4
aI2
aI1
aI4
aI0
aI1
aI1
aI3
aI2
aI3
aI4
aI3
aI4
aI3
aI5
aI3
aI2
aI5
aI5
aI3
aI3
aI3
aI3
aI1
aI1
aI2
aI4
aI4
aI4
aI1
aI3
aI3
aI3
aI4
aI3
aI5
aI3
aI3
aI3
aI4
aI3
aI2
aI5
aI5
aI5
aI5
aI5
aI3
aI1
aI1
aI3
aI2
aI4
aI3
aI2
aI3
aI5
aI5
aI4
aI3
aI3
aI4
aI5
aI4
aI4
aI2
aI4
aI5
aI3
aI4
aI3
aI5
aI3
aI1
aI4
aI3
aI4
aI2
aI4
aI5
aI3
aI5
aI5
aI5
aI3
aI5
aI3
aI3
aI5
aI4
aI4
aI2
aI1
aI5
aI3
aI3
aI4
aI3
aI4
aI3
aI1
aI3
aI3
aI3
aI5
aI4
aI5
aI4
aI4
aI4
aI1
aI2
aI3
aI4
aI4
aI2
aI5
aI5
aI4
aI3
aI2
aI3
aI2
aI3
aI4
aI2
aI3
aI5
aI2
aI3
aI2
aI0
aI3
aI3
aI4
aI1
aI3
aI2
aI2
aI5
aI4
aI4
aI4
aI3
aI4
aI4
aI1
aI5
aI4
aI2
aI4
aI4
aI4
aI4
aI4
aI3
aI3
aI2
aI3
aI4
aI5
aI3
aI4
aI3
aI2
aI5
aI3
aI3
aI5
aI3
aI4
aI4
aI4
aI2
aI5
aI3
aI5
aI4
aI5
aI3
aI3
aI3
aI2
aI1
aI1
aI2
aI3
aI3
aI4
aI4
aI5
aI4
aI4
aI2
aI5
aI5
aI3
aI3
aI2
aI3
aI3
aI2
aI3
aI3
aI3
aI3
aI2
aI0
aI3
aI2
aI3
aI2
aI5
aI2
aI0
aI5
aI2
aI3
aI4
aI4
aI3
aI5
aI3
aI4
aI5
aI5
aI2
aI3
aI2
aI4
aI2
aI4
aI2
aI3
aI4
aI4
aI3
aI4
aI2
aI5
aI5
aI4
aI5
aI2
aI2
aI4
aI4
aI4
aI5
aI4
aI2
aI4
aI5
aI5
aI5
aI5
aI2
aI3
aI4
aI5
aI3
aI2
aI4
aI3
aI4
aI2
aI1
aI3
aI3
aI5
aI2
aI2
aI1
aI3
aI2
aI3
aI4
aI2
aI0
aI2
aI1
aI4
aI5
aI5
aI4
aI2
aI3
aI4
aI4
aI2
aI1
aI3
aI3
aI2
aI3
aI5
aI4
aI5
aI4
aI4
aI3
aI3
aI5
aI5
aI4
aI3
aI4
aI4
aI4
aI3
aI3
aI5
aI1
aI2
aI5
aI5
aI3
aI3
aI3
aI5
aI3
aI4
aI4
aI3
aI4
aI3
aI1
aI2
aI3
aI5
aI4
aI4
aI4
aI3
aI4
aI4
aI4
aI2
aI2
aI5
aI5
aI5
aI5
aI4
aI5
aI4
aI4
aI5
aI3
aI4
aI5
aI5
aI5
aI5
aI5
aI0
aI3
aI3
aI2
aI1
aI4
aI2
aI5
aI4
aI5
aI2
aI2
aI5
aI4
aI5
aI5
aI5
aI4
aI4
aI4
aI2
aI5
aI4
aI5
aI5
aI3
aI5
aI2
aI3
aI3
aI4
aI4
aI5
aI5
aI3
aI3
aI2
aI2
aI1
aI4
aI4
aI3
aI3
aI5
aI3
aI3
aI1
aI2
aI4
aI3
aI5
aI4
aI4
aI3
aI4
aI5
aI3
aI5
aI3
aI5
aI2
aI3
aI4
aI3
aI5
aI2
aI4
aI4
aI4
aI3
aI1
aI4
aI4
aI1
aI3
aI4
aI3
aI5
aI5
aI5
aI5
aI4
aI4
aI4
aI2
aI4
aI3
aI5
aI4
aI5
aI3
aI5
aI3
aI5
aI3
aI4
aI1
aI3
aI2
aI1
aI0
aI4
aI5
aI1
aI1
aI0
aI2
aI5
aI3
aI5
aI4
aI3
aI4
aI5
aI3
aI4
aI1
aI2
aI5
aI3
aI5
aI5
aI5
aI5
aI2
aI3
aI5
aI3
aI3
aI5
aI4
aI5
aI3
aI5
aI4
aI5
aI3
aI4
aI4
aI4
aI5
aI4
aI5
aI3
aI0
aI4
aI4
aI2
aI1
aI4
aI4
aI2
aI5
aI3
aI5
aI4
aI4
aI2
aI0
aI2
aI5
aI2
aI5
aI4
aI4
aI5
aI5
aI4
aI2
aI2
aI4
aI3
aI5
aI4
aI4
aI2
aI5
aI5
aI3
aI4
aI3
aI5
aI4
aI5
aI3
aI3
aI5
aI5
aI3
aI3
aI4
aI2
aI4
aI5
aI4
aI3
aI4
aI4
aI5
aI3
aI3
aI3
aI5
aI4
aI1
aI5
aI1
aI2
aI3
aI5
aI4
aI4
aI5
aI1
aI1
aI0
aI3
aI5
aI4
aI0
aI3
aI5
aI4
aI4
aI3
aI4
aI2
aI5
aI2
aI0
aI0
aI4
aI5
aI1
aI0
aI0
aI3
aI4
aI1
aI0
aI5
aI0
aI3
aI3
aI1
aI4
aI1
aI5
aI3
aI4
aI3
aI5
aI2
aI5
aI4
aI5
aI0
aI3
aI4
aI0
aI3
aI3
aI5
aI5
aI5
aI5
aI3
aI5
aI4
aI5
aI4
aI4
asI2012
(lp8
I4
aI5
aI4
aI4
aI0
aI3
aI3
aI2
aI2
aI2
aI3
aI4
aI4
aI0
aI3
aI5
aI3
aI2
aI5
aI5
aI3
aI5
aI5
aI5
aI5
aI4
aI5
aI0
aI0
aI2
aI4
aI3
aI1
aI4
aI0
aI2
aI2
aI3
aI3
aI1
aI5
aI4
aI0
aI3
aI2
aI5
aI2
aI3
aI0
aI1
aI3
aI3
aI3
aI5
aI5
aI5
aI5
aI3
aI2
aI3
aI4
aI3
aI4
aI4
aI4
aI4
aI3
aI3
aI3
aI4
aI3
aI5
aI0
aI0
aI0
aI1
aI2
aI3
aI3
aI3
aI4
aI0
aI0
aI1
aI3
aI4
aI3
aI4
aI3
aI2
aI3
aI1
aI0
aI0
aI2
aI3
aI2
aI2
aI3
aI5
aI2
aI5
aI0
aI2
aI2
aI1
aI4
aI0
aI2
aI0
aI2
aI3
aI2
aI3
aI3
aI4
aI4
aI5
aI4
aI5
aI0
aI5
aI3
aI0
aI0
aI4
aI5
aI2
aI5
aI4
aI4
aI3
aI3
aI2
aI3
aI5
aI5
aI3
aI3
aI5
aI2
aI0
aI4
aI0
aI0
aI1
aI5
aI4
aI5
aI3
aI5
aI3
aI4
aI2
aI2
aI3
aI4
aI5
aI3
aI2
aI3
aI5
aI4
aI4
aI4
aI4
aI1
aI3
aI3
aI2
aI3
aI3
aI4
aI0
aI1
aI2
aI4
aI5
aI3
aI3
aI3
aI3
aI0
aI2
aI3
aI4
aI0
aI5
aI1
aI0
aI0
aI2
aI0
aI3
aI0
aI1
aI3
aI0
aI1
aI3
aI0
aI0
aI3
aI3
aI5
aI5
aI2
aI2
aI0
aI0
aI3
aI3
aI1
aI5
aI0
aI5
aI1
aI4
aI2
aI2
aI3
aI0
aI5
aI0
aI2
aI4
aI4
aI2
aI4
aI4
aI5
aI0
aI1
aI3
aI0
aI4
aI5
aI0
aI5
aI5
aI4
aI3
aI3
aI3
aI3
aI1
aI1
aI0
aI0
aI0
aI3
aI3
aI4
aI2
aI2
aI2
aI0
aI4
aI3
aI3
aI1
aI3
aI1
aI5
aI5
aI5
aI4
aI3
aI4
aI3
aI5
aI3
aI5
aI5
aI2
aI5
aI5
aI1
aI0
aI0
aI0
aI3
aI4
aI4
aI2
aI5
aI3
aI0
aI4
aI5
aI3
aI3
aI3
aI2
aI3
aI4
aI2
aI0
aI2
aI0
aI3
aI0
aI4
aI4
aI3
aI4
aI3
aI3
aI5
aI3
aI2
aI3
aI0
aI2
aI0
aI0
aI0
aI3
aI2
aI0
aI2
aI0
aI3
aI0
aI0
aI1
aI1
aI0
aI3
aI3
aI5
aI4
aI5
aI4
aI2
aI3
aI5
aI4
aI0
aI5
aI5
aI4
aI5
aI5
aI4
aI3
aI2
aI0
aI1
aI3
aI3
aI1
aI4
aI4
aI5
aI4
aI4
aI5
aI5
aI5
aI5
aI2
aI3
aI2
aI5
aI3
aI3
aI2
aI2
aI1
aI1
aI0
aI2
aI4
aI1
aI1
aI1
aI0
aI5
aI5
aI5
aI4
aI4
aI5
aI5
aI2
aI5
aI3
aI4
aI3
aI0
aI3
aI3
aI3
aI0
aI4
aI0
aI3
aI1
aI5
aI2
aI2
aI4
aI5
aI4
aI0
aI2
aI5
aI3
aI0
aI0
aI0
aI0
aI0
aI0
aI1
aI0
aI1
aI3
aI3
aI3
aI3
aI4
aI3
aI4
aI1
aI3
aI0
aI0
aI0
aI0
aI1
aI4
aI0
aI0
aI0
aI0
aI0
aI3
aI0
aI0
aI0
aI4
aI1
aI5
aI0
aI0
aI1
aI0
aI0
aI3
aI0
aI5
aI3
aI4
aI5
aI0
aI2
aI0
aI0
aI1
aI4
aI3
aI4
aI2
aI2
aI2
aI1
aI0
aI3
aI4
aI4
aI0
aI3
aI2
aI2
aI2
aI4
aI2
aI0
aI4
aI4
aI4
aI5
aI2
aI5
aI3
aI2
aI4
aI3
aI4
aI3
aI4
aI4
aI5
aI5
aI4
aI3
aI0
aI5
aI0
aI4
aI3
aI5
aI5
aI3
aI4
aI3
aI1
aI4
aI4
aI3
aI4
aI1
aI3
aI4
aI2
aI1
aI2
aI0
aI4
aI2
aI5
aI3
aI3
aI4
aI2
aI5
aI0
aI5
aI4
aI1
aI5
aI4
aI3
aI5
aI2
aI2
aI5
aI3
aI4
aI5
aI3
aI2
aI3
aI4
aI4
aI3
aI4
aI3
aI4
aI0
aI1
aI5
aI3
aI3
aI3
aI2
aI4
aI5
aI4
aI5
aI4
aI5
aI3
aI5
aI3
aI3
aI5
aI4
aI5
aI5
aI4
aI5
aI5
aI4
aI1
aI2
aI1
aI5
aI1
aI0
aI0
aI0
aI0
aI4
aI1
aI2
aI4
aI3
aI3
aI0
aI3
aI5
aI1
aI0
aI5
aI4
aI4
aI4
aI5
aI1
aI3
aI1
aI4
aI5
aI5
aI2
aI1
aI3
aI3
aI4
aI1
aI0
aI2
aI3
aI0
aI2
aI1
aI0
aI3
aI1
aI3
aI3
aI4
aI5
aI5
aI0
aI1
aI5
aI3
aI5
aI4
aI3
aI2
aI5
aI3
aI5
aI5
aI4
aI5
aI3
aI3
aI5
aI4
aI5
aI3
aI3
aI2
aI1
aI0
aI4
aI2
aI4
aI1
aI3
aI4
aI1
aI2
aI4
aI1
aI0
aI2
aI2
aI0
aI0
aI0
aI4
aI2
aI1
aI4
aI3
aI4
aI2
aI2
aI3
aI5
aI3
aI2
aI1
aI2
aI0
aI4
aI0
aI1
aI0
aI5
aI5
aI1
aI2
aI4
aI0
aI3
aI1
aI4
aI4
aI1
aI4
aI3
aI5
aI1
aI2
aI4
aI1
aI5
aI2
aI4
aI5
aI3
aI5
aI5
aI0
aI5
aI2
aI1
aI0
aI1
aI5
aI4
aI0
aI1
aI2
aI4
aI2
aI4
aI5
aI3
aI2
aI3
aI4
aI1
aI4
aI4
aI0
aI2
aI2
aI3
aI4
aI1
aI1
aI0
aI2
aI4
aI3
aI5
aI4
aI5
aI3
aI1
aI0
aI4
aI2
aI3
aI4
aI5
aI0
aI1
aI4
aI4
aI5
aI4
aI3
aI2
aI2
aI5
aI1
aI3
aI2
aI4
aI4
aI2
aI2
aI2
aI5
aI2
aI0
aI0
aI0
aI5
aI3
aI4
aI3
aI4
aI0
aI3
aI2
aI3
aI3
aI3
aI5
aI3
aI3
aI0
aI1
aI3
aI4
aI2
aI1
aI0
aI0
aI4
aI5
aI3
aI5
aI5
aI3
aI4
aI3
aI3
aI4
aI3
aI3
aI5
aI4
aI5
aI5
aI4
aI2
aI4
aI4
aI3
aI1
aI5
aI5
aI3
aI0
aI5
aI1
aI2
aI2
aI3
aI5
aI5
aI3
aI3
aI5
aI2
aI2
aI2
aI4
aI4
aI5
aI1
aI2
aI4
aI3
aI2
aI2
aI2
aI3
aI1
aI0
aI3
aI0
aI3
aI4
aI3
aI3
aI1
aI1
aI5
aI4
aI2
aI4
aI5
aI5
aI5
aI3
aI1
aI2
aI3
aI2
aI3
aI3
aI2
aI2
aI4
aI3
aI3
aI1
aI1
aI3
aI1
aI0
aI2
aI2
aI2
aI4
aI0
aI4
aI4
aI5
aI5
aI5
aI5
aI0
aI0
aI0
aI0
aI0
aI1
aI0
aI4
aI2
aI5
aI3
aI3
aI2
aI5
aI5
aI2
aI1
aI5
aI5
aI5
aI4
aI2
aI5
aI4
aI5
aI0
aI3
aI3
aI3
aI4
aI2
aI4
aI5
aI5
aI5
aI5
aI5
aI3
aI0
aI1
aI1
aI3
aI0
aI3
aI3
aI0
aI4
aI5
aI4
aI4
aI5
aI5
aI5
aI5
aI4
aI4
aI5
aI5
aI5
aI2
aI5
aI5
aI5
aI3
aI5
aI2
aI1
aI5
aI4
aI2
aI4
aI4
aI5
aI5
aI5
aI5
aI3
aI5
aI5
aI3
aI4
aI4
aI5
aI5
aI5
aI3
aI4
aI5
aI4
aI0
aI0
aI4
aI4
aI0
aI2
aI1
aI2
aI1
aI0
aI5
aI5
aI5
aI5
aI5
aI4
aI3
aI0
aI1
aI0
aI0
aI0
aI0
aI4
aI4
aI2
aI2
aI4
aI1
aI5
aI1
aI0
aI3
aI0
aI3
aI3
aI0
aI5
aI2
aI2
aI0
aI0
aI4
aI0
aI5
aI5
aI3
aI5
aI4
aI2
aI5
aI3
aI5
aI4
aI4
aI4
aI4
aI3
aI5
aI2
aI2
aI5
aI2
aI3
aI4
aI0
aI4
aI1
aI2
aI5
aI2
aI3
aI3
aI5
aI5
aI5
aI1
aI4
aI3
aI1
aI4
aI5
aI3
aI0
aI3
aI1
aI0
aI0
aI1
aI0
aI0
aI0
aI5
aI3
aI3
aI1
aI5
aI3
aI2
aI4
aI5
aI4
aI1
aI1
aI3
aI5
aI5
aI5
aI5
aI5
aI4
aI3
aI4
aI4
aI5
aI5
aI5
aI5
aI4
aI3
aI5
aI4
aI3
aI4
aI0
aI1
aI0
aI5
aI1
aI2
aI1
aI1
aI4
aI2
aI5
aI0
aI0
aI2
aI0
aI0
aI0
aI1
aI3
aI0
aI4
aI0
aI2
aI2
aI2
aI1
aI3
aI5
aI5
aI3
aI3
aI5
aI3
aI3
aI5
aI5
aI5
aI4
aI4
aI5
aI4
aI0
aI2
aI2
aI0
aI2
aI4
aI2
aI5
aI2
aI0
aI0
aI0
aI4
aI3
aI2
aI1
aI2
aI1
aI0
aI3
aI5
aI0
aI1
aI4
aI0
aI5
aI0
aI1
aI4
aI0
aI5
aI0
aI1
aI0
aI1
aI1
aI4
aI4
aI4
aI3
aI2
aI4
aI5
aI2
aI3
aI3
aI2
aI3
aI5
aI3
aI4
aI4
aI3
aI0
aI0
aI0
aI1
aI0
aI2
aI0
aI3
aI2
aI3
aI1
aI5
aI3
aI2
aI5
aI4
aI3
aI4
aI3
aI5
aI1
aI2
aI4
aI0
aI5
aI4
aI3
aI2
aI5
aI3
aI3
aI3
aI2
aI1
aI3
aI1
aI0
aI4
aI3
aI3
aI3
aI5
aI5
aI2
aI2
aI1
aI0
aI0
aI1
aI0
aI1
aI3
aI1
aI4
aI1
aI3
aI4
aI0
aI0
aI2
aI3
aI3
aI0
aI5
aI3
aI3
aI2
aI4
aI3
aI5
aI0
aI5
aI2
aI2
aI4
aI0
aI0
aI3
aI0
aI5
aI4
aI0
aI3
aI5
aI2
aI0
aI0
aI3
aI0
aI0
aI0
aI2
aI0
aI5
aI0
aI2
aI5
aI3
aI0
aI0
aI0
aI3
aI0
aI0
aI5
aI0
aI0
aI0
aI2
aI0
aI1
aI1
aI0
aI1
aI3
aI4
aI0
aI2
aI5
aI2
aI4
aI1
aI3
aI3
aI1
aI2
aI1
aI4
aI2
aI4
aI2
aI3
aI3
aI2
aI4
aI1
aI1
aI0
aI2
aI0
aI0
aI0
aI1
aI2
aI4
aI3
aI0
aI0
aI3
aI0
aI2
aI2
aI4
aI2
aI3
aI2
aI0
aI0
aI4
aI5
aI4
aI5
aI4
aI4
aI5
aI5
aI5
aI2
aI5
aI2
aI4
aI5
aI5
aI3
aI3
aI4
aI2
aI3
aI4
aI1
aI2
aI2
aI1
aI3
aI1
aI5
aI3
aI5
aI4
aI4
aI2
aI5
aI5
aI5
aI4
aI5
aI5
aI4
aI5
aI5
aI4
aI5
aI5
aI1
aI3
aI2
aI1
aI2
aI2
aI1
aI2
aI5
aI0
aI3
aI2
aI2
aI5
aI5
aI5
aI1
aI0
aI4
aI4
aI2
aI3
aI5
aI0
aI0
aI1
aI0
aI0
aI1
aI1
aI2
aI4
aI2
aI0
aI3
aI4
aI3
aI1
aI3
aI3
aI3
aI4
aI0
aI4
aI4
aI3
aI3
aI0
aI1
aI0
aI3
aI5
aI0
aI1
aI0
aI3
aI4
aI2
aI3
aI5
aI0
aI4
aI4
aI4
aI5
aI4
aI5
aI3
aI3
aI3
aI0
aI4
aI1
aI4
aI5
aI5
aI4
aI4
aI1
aI4
aI5
aI3
aI0
aI4
aI1
aI0
aI0
aI0
aI3
aI2
aI0
aI2
aI3
aI3
aI2
aI2
aI1
aI2
aI1
aI1
aI5
aI5
aI5
aI1
aI1
aI3
aI0
aI3
aI2
aI2
aI3
aI0
aI4
aI1
aI0
aI1
aI3
aI3
aI1
aI2
aI5
aI5
aI5
aI5
aI4
aI4
aI3
aI1
aI5
aI5
aI0
aI5
aI4
aI4
aI5
aI4
aI3
aI0
aI3
aI2
aI3
aI5
aI4
aI3
aI0
aI3
aI2
aI0
aI2
aI3
aI4
aI2
aI4
aI3
aI4
aI3
aI2
aI3
aI2
aI4
aI0
aI2
aI5
aI5
aI2
aI4
aI3
aI4
aI3
aI3
aI5
aI1
aI4
aI4
aI4
aI2
aI4
aI3
aI1
aI3
aI4
aI1
aI0
aI0
aI1
aI2
aI2
aI3
aI0
aI3
aI2
aI1
aI3
aI4
aI4
aI1
aI3
aI0
aI0
aI3
aI1
aI0
aI0
aI5
aI1
aI3
aI4
aI0
aI2
aI5
aI1
aI4
aI0
aI0
aI1
aI0
aI4
aI5
aI4
aI5
aI4
aI0
aI5
aI4
aI4
aI5
aI3
aI5
aI5
aI5
aI2
aI3
aI3
aI4
aI4
aI4
aI0
aI0
aI4
aI3
aI1
aI4
aI2
aI1
aI3
aI3
aI3
aI1
aI4
aI3
aI2
aI0
aI3
aI2
aI4
aI2
aI1
aI4
aI1
aI2
aI2
aI0
aI0
aI3
aI1
aI0
aI2
aI1
aI4
aI3
aI1
aI2
aI3
aI3
aI3
aI4
aI4
aI1
aI0
aI3
aI4
aI2
aI3
aI2
aI2
aI2
aI1
aI1
aI0
aI3
aI4
aI1
aI1
aI3
aI1
aI0
aI4
aI4
aI2
aI2
aI3
aI5
aI2
aI3
aI5
aI5
aI3
aI3
aI5
aI3
aI2
aI4
aI0
aI4
aI0
aI1
aI0
aI1
aI0
aI1
aI1
aI2
aI5
aI4
aI2
aI3
aI4
aI5
aI0
aI2
aI4
aI4
aI5
aI4
aI2
aI0
aI3
aI5
aI1
aI5
aI4
aI4
aI5
aI5
aI5
aI5
aI2
aI5
aI4
aI5
aI5
aI2
aI5
aI5
aI4
aI5
aI5
aI5
aI5
aI3
aI4
aI2
aI3
aI3
aI3
aI4
aI3
aI3
aI0
aI0
aI0
aI0
aI2
aI4
aI5
aI3
aI2
aI3
aI5
aI3
aI5
aI3
aI1
aI3
aI0
aI5
aI3
aI2
aI0
aI2
aI3
aI4
aI4
aI5
aI4
aI3
aI3
aI0
aI4
aI3
aI5
aI4
aI2
aI2
aI0
aI4
aI5
aI3
aI2
aI3
aI5
aI5
aI3
aI5
aI3
aI3
aI3
aI3
aI4
aI3
aI1
aI1
aI0
aI0
aI0
aI0
aI1
aI3
aI1
aI0
aI1
aI1
aI4
aI2
aI2
aI1
aI3
aI0
aI1
aI0
aI0
aI3
aI5
aI3
aI3
aI3
aI0
aI0
aI4
aI0
aI5
aI1
aI5
aI3
aI4
aI4
aI3
aI3
aI5
aI5
aI5
aI4
aI5
aI3
aI5
aI3
aI3
aI4
aI2
aI0
aI0
aI0
aI5
aI3
aI1
aI0
aI4
aI3
aI3
aI1
aI0
aI3
aI3
aI3
aI5
aI0
aI0
aI0
aI3
aI0
aI4
aI4
aI4
aI3
aI4
aI0
aI1
aI1
aI0
aI1
aI0
aI1
aI1
aI0
aI1
aI3
aI2
aI0
aI0
aI3
aI0
aI1
aI1
aI0
aI0
aI0
aI0
aI5
aI5
aI5
aI5
aI4
aI5
aI5
aI3
aI0
aI1
aI4
aI2
aI5
aI1
aI0
aI3
aI4
aI4
aI4
aI4
aI2
aI4
aI4
aI5
aI5
aI4
aI4
aI3
aI1
aI5
aI5
aI5
aI5
aI5
aI5
aI3
aI3
aI5
aI3
aI5
aI0
aI5
aI1
aI0
aI4
aI3
aI5
aI2
aI4
aI3
aI4
aI2
aI4
aI2
aI3
aI3
aI5
aI1
aI3
aI2
aI0
aI0
aI0
aI1
aI3
aI0
aI5
aI4
aI4
aI5
aI3
aI2
aI3
aI2
aI0
aI2
aI0
aI1
aI3
aI5
aI5
aI5
aI0
aI0
aI2
aI0
aI3
aI3
aI1
aI0
aI0
aI0
aI1
aI2
aI1
aI0
aI0
aI1
aI0
aI0
aI2
aI2
aI3
aI5
aI3
aI0
aI2
aI0
aI0
aI0
aI0
aI4
aI1
aI3
aI0
aI0
aI0
aI0
aI0
aI4
aI4
aI2
aI3
aI3
aI5
aI3
aI0
aI0
aI5
aI0
aI0
aI4
aI5
aI5
aI5
aI2
aI5
aI4
aI0
aI1
aI2
aI3
aI2
aI0
aI0
aI1
aI2
aI2
aI1
aI0
aI3
aI0
aI0
aI0
aI1
aI5
aI0
aI4
aI1
aI3
aI4
aI3
aI3
aI5
aI1
aI1
aI4
aI1
aI1
aI0
aI0
aI4
aI0
aI0
aI2
aI0
aI5
aI1
aI0
aI3
aI4
aI0
aI4
aI1
aI3
aI1
aI2
aI4
aI4
aI1
aI0
aI4
aI1
aI1
aI2
aI5
aI5
aI0
aI1
aI2
aI3
aI5
aI5
aI2
aI0
aI4
aI3
aI0
aI3
aI0
aI4
aI5
aI3
aI0
aI2
aI5
aI4
aI4
aI3
aI4
aI2
aI5
aI1
aI4
aI3
aI3
aI4
aI3
aI3
aI0
aI4
aI0
aI0
aI0
aI5
aI0
aI4
aI3
aI2
aI3
aI1
aI0
aI5
aI5
aI4
aI5
aI5
aI3
aI0
aI1
aI1
aI2
aI3
aI2
aI4
aI2
aI1
aI5
aI4
aI4
aI2
aI3
aI5
aI5
aI3
aI1
aI3
aI4
aI3
aI4
aI2
aI2
aI5
aI4
aI4
aI3
aI5
aI5
aI3
aI2
aI3
aI3
aI2
aI2
aI0
aI2
aI1
aI4
aI5
aI4
aI4
aI3
aI5
aI3
aI4
aI4
aI3
aI4
aI2
aI3
aI5
aI0
aI0
aI3
aI4
aI3
aI4
aI2
aI3
aI4
aI3
aI1
aI5
aI0
aI4
aI3
aI3
aI1
aI5
aI1
aI3
aI2
aI0
aI3
aI0
aI0
aI1
aI2
aI0
aI5
aI0
aI2
aI1
aI2
aI1
aI2
aI0
aI1
aI2
aI1
aI3
aI1
aI4
aI4
aI0
aI5
aI3
aI3
aI2
aI0
aI4
aI0
aI2
aI0
aI1
aI4
aI2
aI5
aI5
aI3
aI1
aI5
aI4
aI5
aI2
aI2
aI1
aI4
aI1
aI5
aI4
aI4
aI2
aI5
aI2
aI1
aI2
aI0
aI0
aI0
aI4
aI3
aI3
aI5
aI3
aI5
aI2
aI2
aI4
aI5
aI2
aI4
aI4
aI2
aI0
aI3
aI1
aI4
aI3
aI4
aI3
aI5
aI5
aI1
aI3
aI2
aI5
aI5
aI5
aI3
aI5
aI5
aI3
aI2
aI2
aI3
aI4
aI2
aI4
aI2
aI2
aI4
aI5
aI5
aI4
aI5
aI3
aI3
aI1
aI5
aI2
aI5
aI0
aI4
aI4
aI4
aI2
aI3
aI4
aI4
aI4
aI3
aI4
aI5
aI2
aI4
aI0
aI0
aI3
aI4
aI3
aI3
aI4
aI0
aI3
aI5
aI3
aI5
aI4
aI3
aI4
aI4
aI2
aI2
aI5
aI5
aI2
aI5
aI3
aI4
aI4
aI3
aI5
aI4
aI3
aI5
aI4
aI2
aI2
aI2
aI2
aI2
aI2
aI5
aI2
aI3
aI5
aI1
aI3
aI5
aI3
aI2
aI1
aI5
aI3
aI2
aI5
aI2
aI4
aI4
aI3
aI3
aI5
aI5
aI5
aI3
aI4
aI2
aI4
aI5
aI3
aI2
aI4
aI3
aI1
aI4
aI5
aI2
aI4
aI1
aI3
aI4
aI2
aI3
aI5
aI5
aI4
aI4
aI3
aI4
aI4
aI5
aI3
aI4
aI0
aI0
aI2
aI4
aI3
aI4
aI2
aI5
aI4
aI2
aI2
aI2
aI0
aI2
aI4
aI2
aI1
aI2
aI4
aI2
aI2
aI1
aI2
aI0
aI3
aI5
aI3
aI2
aI0
aI0
aI1
aI0
aI3
aI4
aI3
aI0
aI4
aI3
aI3
aI5
aI4
aI5
aI5
aI5
aI5
aI5
aI5
aI4
aI5
aI4
aI3
aI0
aI0
aI0
aI4
aI1
aI3
aI1
aI0
aI0
aI0
aI0
aI3
aI3
aI0
aI4
aI5
aI5
aI3
aI4
aI3
aI0
aI0
aI1
aI3
aI1
aI5
aI0
aI1
aI1
aI3
aI0
aI0
aI2
aI5
aI2
aI0
aI5
aI3
aI0
aI0
aI4
aI1
aI3
aI4
aI4
aI0
aI3
aI3
aI5
aI3
aI2
aI0
aI1
aI2
aI2
aI1
aI5
aI2
aI0
aI2
aI2
aI3
aI0
aI3
aI5
aI2
aI2
aI3
aI3
aI3
aI4
aI2
aI4
aI5
aI3
aI5
aI2
aI3
aI3
aI3
aI3
aI3
aI2
aI3
aI2
aI3
aI3
aI1
aI1
aI5
aI4
aI3
aI0
aI3
aI5
aI5
aI2
aI4
aI4
aI4
aI4
aI5
aI4
aI1
aI5
aI1
aI1
aI1
aI4
aI3
aI3
aI1
aI0
aI1
aI1
aI1
aI0
aI1
aI2
aI2
aI5
aI2
aI4
aI3
aI2
aI3
aI3
aI3
aI4
aI3
aI3
aI2
aI1
aI2
aI2
aI3
aI4
aI2
aI3
aI3
aI5
aI4
aI4
aI4
aI3
aI2
aI1
aI5
aI4
aI3
aI0
aI2
aI4
aI2
aI0
aI1
aI3
aI2
aI4
aI1
aI5
aI1
aI2
aI3
aI4
aI4
aI4
aI3
aI3
aI3
aI4
aI0
aI5
aI5
aI4
aI3
aI5
aI5
aI5
aI5
aI3
aI5
aI5
aI1
aI4
aI5
aI4
aI5
aI3
aI3
aI4
aI3
aI5
aI5
aI4
aI5
aI3
aI3
aI2
aI4
aI2
aI4
aI4
aI3
aI1
aI1
aI2
aI0
aI1
aI0
aI2
aI4
aI4
aI2
aI0
aI0
aI4
aI1
aI1
aI2
aI0
aI4
aI0
aI0
aI0
aI1
aI0
aI2
aI1
aI2
aI5
aI5
aI4
aI3
aI4
aI5
aI3
aI4
aI1
aI5
aI3
aI4
aI5
aI3
aI4
aI4
aI4
aI1
aI4
aI5
aI3
aI4
aI4
aI1
aI3
aI2
aI3
aI5
aI3
aI4
aI0
aI3
aI5
aI3
aI2
aI5
aI3
aI5
aI2
aI2
aI4
aI4
aI2
aI1
aI4
aI5
aI5
aI3
aI0
aI5
aI1
aI1
aI5
aI1
aI4
aI3
aI0
aI0
aI4
aI0
aI3
aI4
aI3
aI0
aI1
aI3
aI0
aI0
aI0
aI0
aI3
aI2
aI5
aI5
aI5
aI3
aI3
aI4
aI5
aI4
aI5
aI4
aI5
aI4
aI5
aI3
aI3
aI3
aI3
aI0
aI1
aI0
aI1
aI0
aI1
aI0
aI0
aI4
aI1
aI1
aI0
aI0
aI1
aI0
aI4
aI2
aI0
aI0
aI2
aI1
aI3
aI3
aI2
aI5
aI3
aI4
aI2
aI2
aI2
aI4
aI2
aI4
aI4
aI1
aI2
aI4
aI4
aI0
aI3
aI5
aI2
aI0
aI3
aI4
aI3
aI3
aI3
aI1
aI1
aI0
aI3
aI0
aI1
aI0
aI0
aI3
aI4
aI5
aI2
aI5
aI5
aI5
aI5
aI5
aI4
aI4
aI3
aI3
aI4
aI4
aI0
aI3
aI4
aI4
aI5
aI2
aI2
aI0
aI0
aI3
aI3
aI2
aI5
aI3
aI4
aI4
aI3
aI0
aI4
aI0
aI2
aI2
aI4
aI3
aI2
aI0
aI1
aI2
aI0
aI4
aI5
aI5
aI3
aI3
aI5
aI3
aI2
aI3
aI4
aI4
aI5
aI3
aI1
aI1
aI2
aI4
aI4
aI3
aI3
aI1
aI3
aI5
aI2
aI2
aI4
aI1
aI2
aI5
aI5
aI4
aI4
aI4
aI5
aI2
aI5
aI4
aI5
aI5
aI0
aI5
aI0
aI3
aI4
aI3
aI2
aI5
aI5
aI5
aI0
aI3
aI4
aI4
aI3
aI3
aI4
aI2
aI2
aI0
aI2
aI1
aI1
aI5
aI3
aI4
aI4
aI3
aI0
aI3
aI4
aI5
aI2
aI3
aI3
aI4
aI2
aI3
aI3
aI5
aI5
aI4
aI3
aI5
aI5
aI4
aI3
aI5
aI0
aI4
aI2
aI0
aI1
aI3
aI3
aI0
aI2
aI2
aI0
aI4
aI1
aI4
aI3
aI4
aI4
aI3
aI4
aI5
aI5
aI4
aI4
aI4
aI0
aI1
aI2
aI3
aI1
aI1
aI5
aI0
aI3
aI3
aI2
aI5
aI3
aI4
aI2
aI3
aI5
aI3
aI5
aI4
aI2
aI5
aI3
aI4
aI4
aI3
aI3
aI5
aI5
aI2
aI1
aI2
aI4
aI4
aI0
aI1
aI4
aI2
aI5
aI3
aI5
aI3
aI4
aI5
aI4
aI5
aI5
aI5
aI4
aI5
aI5
aI3
aI4
aI5
aI3
aI1
aI2
aI4
aI1
aI1
aI1
aI3
aI4
aI2
aI5
aI4
aI2
aI4
aI2
aI2
aI4
aI5
aI2
aI5
aI5
aI5
aI4
aI4
aI5
aI1
aI4
aI3
aI1
aI0
aI2
aI2
aI0
aI4
aI2
aI5
aI0
aI2
aI2
aI5
aI2
aI0
aI3
aI4
aI3
aI2
aI1
aI4
aI2
aI4
aI4
aI0
aI2
aI2
aI1
aI0
aI1
aI3
aI3
aI2
aI3
aI4
aI3
aI4
aI4
aI5
aI4
aI2
aI4
aI5
aI2
aI4
aI5
aI2
aI0
aI4
aI2
aI0
aI4
aI5
aI0
aI4
aI2
aI2
aI5
aI4
aI5
aI4
aI2
aI5
aI3
aI2
aI3
aI0
aI4
aI5
aI4
aI2
aI5
aI3
aI5
aI4
aI2
aI4
aI4
aI3
aI2
aI4
aI1
aI0
aI2
aI3
aI3
aI3
aI4
aI0
aI0
aI1
aI1
aI4
aI5
aI1
aI3
aI3
aI0
aI4
aI1
aI0
aI2
aI1
aI0
aI0
aI1
aI0
aI0
aI0
aI2
aI0
aI3
aI2
aI1
aI0
aI2
aI2
aI0
aI3
aI1
aI1
aI2
aI1
aI3
aI3
aI4
aI1
aI4
aI5
aI3
aI5
aI3
aI0
aI4
aI5
aI3
aI3
aI0
aI0
aI4
aI2
aI5
aI4
aI3
aI2
aI4
aI4
aI5
aI4
aI2
aI4
aI4
aI4
aI3
aI5
aI4
aI4
aI5
aI4
aI1
aI4
aI3
aI0
aI5
aI5
aI4
aI4
aI2
aI5
aI2
aI3
aI4
aI0
aI2
aI1
aI1
aI1
aI2
aI2
aI1
aI3
aI3
aI4
aI2
aI3
aI4
aI5
aI5
aI5
aI3
aI0
aI4
aI3
aI5
aI4
aI2
aI4
aI3
aI4
aI3
aI0
aI3
aI2
aI3
aI4
aI0
aI4
aI4
aI2
aI3
aI4
aI3
aI0
aI1
aI0
aI0
aI4
aI0
aI1
aI0
aI3
aI4
aI2
aI1
aI0
aI3
aI0
aI0
aI0
aI4
aI3
aI2
aI5
aI0
aI3
aI0
aI5
aI3
aI4
aI3
aI5
aI1
aI4
aI4
aI5
aI5
aI5
aI4
aI0
aI5
aI0
aI1
aI5
aI3
aI2
aI2
aI0
aI2
aI3
aI5
aI4
aI4
aI4
aI5
aI3
aI4
aI4
aI2
aI2
aI0
aI4
aI2
aI5
aI3
aI4
aI5
aI3
aI4
aI0
aI1
aI0
aI2
aI3
aI0
aI0
aI0
aI3
aI2
aI1
aI2
aI0
aI4
aI0
aI5
aI4
aI4
aI2
aI4
aI4
aI4
aI4
aI4
aI4
aI3
aI3
aI3
aI5
aI4
aI5
aI3
aI4
aI4
aI3
aI3
aI5
aI0
aI1
aI2
aI5
aI0
aI4
aI0
aI1
aI5
aI0
aI2
aI1
aI4
aI3
aI5
aI3
aI4
aI5
aI5
aI0
aI5
aI2
aI0
aI2
aI1
aI2
aI0
aI5
aI4
aI5
aI4
aI3
aI3
aI0
aI5
aI3
aI3
aI4
aI5
aI5
aI3
aI5
aI4
aI5
aI3
aI5
aI4
aI2
aI1
aI0
aI0
aI0
aI1
aI1
aI0
aI1
aI4
aI2
aI5
aI0
aI2
aI4
aI1
aI0
aI0
aI3
aI0
aI0
aI3
aI0
aI0
aI0
aI2
aI4
aI1
aI2
aI4
aI1
aI3
aI4
aI2
aI5
aI4
aI2
aI0
aI0
aI5
aI0
aI0
aI0
aI0
aI0
aI1
aI4
aI0
aI0
aI1
aI2
aI1
aI3
aI0
aI5
aI0
aI3
aI3
aI3
aI0
aI3
aI0
aI1
aI1
aI3
aI0
aI3
aI2
aI3
aI2
aI0
aI5
aI2
aI4
aI2
aI1
aI3
aI3
aI4
aI3
aI1
aI1
aI3
aI1
aI3
aI2
aI2
aI2
aI4
aI3
aI3
aI1
aI3
aI3
aI5
aI4
aI4
aI3
aI5
aI4
aI2
aI5
aI5
aI2
aI4
aI2
aI3
aI4
aI2
aI3
aI2
aI3
aI1
aI3
aI4
aI5
aI3
aI4
aI2
aI1
aI4
aI1
aI3
aI4
aI2
aI3
aI3
aI5
aI3
aI2
aI3
aI4
aI5
aI1
aI0
aI3
aI1
aI3
aI4
aI3
aI2
aI4
aI1
aI4
aI3
aI4
aI4
aI3
aI4
aI5
aI3
aI2
aI5
aI4
aI4
aI2
aI5
aI5
aI3
aI5
aI5
aI5
aI5
aI4
aI4
aI5
aI5
aI5
aI0
aI0
aI3
aI0
aI0
aI0
aI2
aI0
aI0
aI0
aI4
aI0
aI2
aI3
aI0
aI1
aI0
aI2
aI2
aI0
aI2
aI3
aI2
aI4
aI0
aI2
aI5
aI0
aI3
aI3
aI2
aI0
aI4
aI2
aI1
aI4
aI2
aI0
aI4
aI1
aI1
aI2
aI4
aI0
aI3
aI3
aI1
aI4
aI4
aI4
aI4
aI5
aI1
aI2
aI2
aI1
aI3
aI3
aI1
aI2
aI4
aI5
aI5
aI2
aI5
aI5
aI2
aI4
aI4
aI3
aI2
aI3
aI2
aI4
aI5
aI3
aI4
aI4
aI5
aI3
aI4
aI5
aI5
aI4
aI5
aI3
aI3
aI1
aI2
aI2
aI3
aI2
aI3
aI5
aI5
aI3
aI5
aI5
aI1
aI3
aI3
aI0
aI3
aI1
aI2
aI3
aI3
aI1
aI4
aI2
aI3
aI3
aI4
aI2
aI2
aI4
aI3
aI2
aI5
aI2
aI1
aI1
aI3
aI1
aI0
aI3
aI1
aI1
aI1
aI0
aI2
aI3
aI0
aI2
aI4
aI2
aI0
aI2
aI3
aI2
aI5
aI3
aI3
aI3
aI4
aI5
aI3
aI3
aI4
aI1
aI1
aI4
aI3
aI1
aI1
aI2
aI3
aI2
aI1
aI4
aI4
aI5
aI3
aI3
aI4
aI2
aI3
aI2
aI3
aI2
aI3
aI4
aI5
aI2
aI4
aI3
aI1
aI4
aI3
aI2
aI3
aI5
aI4
aI3
aI4
aI2
aI2
aI4
aI3
aI2
aI2
aI4
aI1
aI3
aI3
aI3
aI4
aI3
aI3
aI3
aI4
aI4
aI2
aI3
aI2
aI4
aI4
aI0
aI4
aI3
aI4
aI3
aI3
aI2
aI5
aI5
aI2
aI2
aI4
aI4
aI3
aI3
aI3
aI5
aI4
aI4
aI3
aI2
aI2
aI3
aI5
aI2
aI2
aI3
aI2
aI3
aI4
aI4
aI2
aI2
aI4
aI2
aI0
aI2
aI3
aI3
aI3
aI4
aI3
aI2
aI3
aI3
aI3
aI3
aI3
aI3
aI2
aI5
aI3
aI3
aI2
aI1
aI4
aI2
aI3
aI2
aI3
aI4
aI3
aI2
aI0
aI1
aI3
aI2
aI1
aI2
aI3
aI2
aI4
aI1
aI2
aI3
aI4
aI3
aI4
aI1
aI2
aI3
aI4
aI3
aI4
aI3
aI3
aI0
aI0
aI3
aI3
aI2
aI3
aI3
aI2
aI4
aI3
aI3
aI5
aI3
aI2
aI4
aI5
aI2
aI4
aI2
aI2
aI1
aI4
aI2
aI2
aI3
aI2
aI3
aI2
aI5
aI3
aI4
aI5
aI3
aI4
aI4
aI2
aI5
aI3
aI2
aI4
aI2
aI3
aI3
aI2
aI3
aI4
aI4
aI4
aI4
aI2
aI4
aI2
aI3
aI2
aI3
aI2
aI2
aI3
aI3
aI3
aI3
aI3
aI4
aI1
aI3
aI3
aI4
aI4
aI2
aI4
aI1
aI5
aI4
aI3
aI5
aI4
aI2
aI3
aI3
aI0
aI2
aI4
aI4
aI3
aI4
aI4
aI3
aI5
aI2
aI2
aI0
aI3
aI2
aI4
aI3
aI2
aI3
aI3
aI0
aI2
aI3
aI3
aI4
aI0
aI3
aI0
aI3
aI2
aI4
aI2
aI1
aI2
aI0
aI3
aI2
aI3
aI3
aI1
aI4
aI3
aI3
aI4
aI4
aI4
aI1
aI4
aI4
aI4
aI3
aI2
aI1
aI3
aI4
aI4
aI2
aI2
aI2
aI3
aI4
aI2
aI4
aI2
aI2
aI4
aI3
aI3
aI3
aI3
aI4
aI4
aI2
aI1
aI3
aI1
aI4
aI2
aI2
aI1
aI0
aI3
aI3
aI3
aI2
aI2
aI4
aI2
aI3
aI4
aI4
aI2
aI3
aI4
aI3
aI3
aI3
aI4
aI3
aI5
aI3
aI1
aI2
aI0
aI3
aI3
aI4
aI3
aI3
aI5
aI2
aI3
aI4
aI2
aI2
aI3
aI2
aI2
aI2
aI1
aI3
aI4
aI2
aI5
aI4
aI3
aI4
aI2
aI4
aI2
aI2
aI4
aI2
aI4
aI4
aI3
aI4
aI2
aI3
aI3
aI2
aI4
aI2
aI3
aI2
aI3
aI3
aI5
aI2
aI3
aI2
aI3
aI4
aI3
aI4
aI3
aI2
aI2
aI0
aI1
aI3
aI5
aI3
aI4
aI3
aI3
aI2
aI2
aI4
aI3
aI3
aI3
aI3
aI3
aI4
aI5
aI3
aI4
aI4
aI3
aI3
aI1
aI2
aI1
aI2
aI2
aI3
aI3
aI3
aI2
aI1
aI2
aI5
aI3
aI2
aI3
aI3
aI5
aI4
aI1
aI3
aI5
aI4
aI2
aI3
aI3
aI3
aI4
aI2
aI4
aI3
aI0
aI3
aI3
aI4
aI1
aI3
aI2
aI3
aI0
aI3
aI2
aI3
aI4
aI0
aI3
aI3
aI2
aI2
aI0
aI3
aI3
aI2
aI3
aI0
aI1
aI4
aI3
aI3
aI3
aI1
aI3
aI2
aI2
aI2
aI3
aI3
aI3
aI1
aI2
aI2
aI3
aI1
aI3
aI4
aI4
aI3
aI2
aI3
aI3
aI4
aI3
aI0
aI3
aI4
aI3
aI2
aI2
aI2
aI2
aI1
aI2
aI3
aI2
aI3
aI3
aI0
aI1
aI2
aI4
aI2
aI2
aI2
aI0
aI3
aI1
aI2
aI1
aI1
aI1
aI2
aI5
aI2
aI4
aI4
aI5
aI3
aI5
aI2
aI3
aI1
aI1
aI0
aI5
aI4
aI5
aI2
aI5
aI5
aI5
aI5
aI3
aI4
aI3
aI4
aI5
aI5
aI3
aI5
aI3
aI1
aI1
aI2
aI1
aI3
aI5
aI5
aI5
aI1
aI3
aI3
aI5
aI4
aI5
aI4
aI2
aI5
aI5
aI4
aI5
aI5
aI4
aI5
aI5
aI4
aI2
aI3
aI0
aI0
aI0
aI1
aI4
aI3
aI0
aI0
aI2
aI2
aI0
aI0
aI0
aI3
aI0
aI0
aI1
aI3
aI0
aI0
aI2
aI5
aI3
aI3
aI2
aI2
aI4
aI4
aI1
aI0
aI4
aI5
aI4
aI5
aI3
aI4
aI2
aI3
aI2
aI1
aI5
aI2
aI3
aI4
aI0
aI3
aI4
aI2
aI2
aI3
aI2
aI3
aI5
aI5
aI3
aI4
aI5
aI4
aI4
aI4
aI2
aI5
aI5
aI3
aI5
aI2
aI2
aI2
aI3
aI3
aI4
aI4
aI5
aI5
aI2
aI5
aI3
aI5
aI4
aI2
aI3
aI5
aI2
aI4
aI2
aI3
aI4
aI3
aI5
aI2
aI5
aI4
aI3
aI4
aI2
aI4
aI3
aI4
aI5
aI4
aI2
aI3
aI5
aI3
aI2
aI4
aI3
aI1
aI2
aI5
aI3
aI3
aI5
aI5
aI5
aI2
aI4
aI3
aI3
aI5
aI5
aI2
aI4
aI4
aI3
aI3
aI3
aI5
aI4
aI5
aI5
aI3
aI3
aI5
aI4
aI5
aI5
aI4
aI3
aI3
aI0
aI4
aI3
aI1
aI4
aI2
aI3
aI4
aI3
aI4
aI2
aI2
aI2
aI3
aI4
aI4
aI1
aI2
aI2
aI5
aI3
aI3
aI1
aI3
aI3
aI0
aI4
aI3
aI3
aI5
aI4
aI4
aI5
aI3
aI2
aI5
aI5
aI4
aI3
aI5
aI3
aI3
aI1
aI5
aI3
aI3
aI3
aI2
aI2
aI4
aI0
aI0
aI4
aI4
aI3
aI2
aI4
aI4
aI4
aI5
aI4
aI5
aI4
aI2
aI2
aI3
aI2
aI3
aI4
aI4
aI3
aI3
aI2
aI5
aI4
aI5
aI4
aI4
aI3
aI1
aI1
aI4
aI4
aI3
aI5
aI1
aI4
aI2
aI1
aI2
aI5
aI4
aI5
aI3
aI5
aI5
aI1
aI3
aI5
aI3
aI4
aI5
aI2
aI3
aI5
aI4
aI5
aI3
aI5
aI3
aI5
aI4
aI4
aI2
aI4
aI2
aI2
aI4
aI1
aI0
aI1
aI3
aI3
aI3
aI2
aI3
aI2
aI4
aI3
aI4
aI5
aI3
aI5
aI5
aI4
aI5
aI4
aI3
aI5
aI3
aI4
aI4
aI5
aI4
aI3
aI5
aI3
aI5
aI2
aI4
aI5
aI4
aI3
aI3
aI5
aI4
aI4
aI4
aI4
aI2
aI3
aI3
aI2
aI0
aI3
aI4
aI2
aI0
aI1
aI1
aI4
aI2
aI3
aI2
aI2
aI1
aI3
aI5
aI5
aI5
aI4
aI5
aI4
aI4
aI5
aI5
aI4
aI5
aI3
aI5
aI5
aI5
aI4
aI3
aI3
aI4
aI5
aI2
aI3
aI4
aI0
aI2
aI4
aI3
aI3
aI2
aI4
aI4
aI3
aI1
aI1
aI3
aI5
aI5
aI4
aI2
aI4
aI3
aI3
aI5
aI5
aI4
aI2
aI5
aI3
aI3
aI4
aI2
aI4
aI3
aI5
aI5
aI5
aI5
aI4
aI4
aI4
aI4
aI2
aI4
aI5
aI2
aI2
aI5
aI4
aI0
aI3
aI4
aI5
aI2
aI3
aI5
aI0
aI0
aI3
aI5
aI4
aI5
aI4
aI1
aI2
aI3
aI5
aI5
aI2
aI3
aI5
aI5
aI5
aI4
aI5
aI5
aI4
aI3
aI1
aI0
aI4
aI3
aI4
aI2
aI5
aI4
aI4
aI3
aI3
aI5
aI5
aI5
aI5
aI2
aI5
aI4
aI4
aI4
aI4
aI4
aI5
aI3
aI2
aI3
aI3
aI3
aI4
aI2
aI5
aI4
aI4
aI5
aI4
aI2
aI5
aI5
aI5
aI4
aI5
aI5
aI5
aI4
aI4
aI3
aI2
aI5
aI5
aI2
aI5
aI5
aI3
aI2
aI5
aI3
aI5
aI4
aI5
aI5
aI4
aI5
aI3
aI4
aI4
aI5
aI3
aI4
aI5
aI4
aI5
aI2
aI3
aI3
aI3
aI3
aI5
aI4
aI4
aI4
aI3
aI3
aI4
aI5
aI3
aI2
aI4
aI3
aI0
aI4
aI4
aI3
aI0
aI3
aI0
aI4
aI1
aI3
aI3
aI0
aI3
aI0
aI4
aI5
aI0
aI0
aI0
aI3
aI0
aI1
aI3
aI5
aI3
aI5
aI4
aI0
aI4
aI0
aI1
aI0
aI3
aI2
aI5
aI3
aI0
aI1
aI3
aI2
aI3
aI4
aI3
aI3
aI2
aI3
aI4
aI0
aI3
aI3
aI3
aI3
aI4
aI2
aI4
aI3
aI1
aI5
aI3
aI1
aI1
aI2
aI1
aI2
aI2
aI0
aI1
aI3
aI4
aI5
aI4
aI4
aI1
aI0
aI2
aI3
aI4
aI4
aI4
aI1
aI5
aI2
aI4
aI5
aI4
aI4
aI5
aI5
aI4
aI5
aI5
aI4
aI4
aI4
aI4
aI5
aI5
aI5
aI0
aI2
aI4
aI3
aI4
aI4
aI4
aI3
aI2
aI5
aI4
aI5
aI1
aI1
aI4
aI5
aI5
aI3
aI1
aI5
aI5
aI3
aI3
aI5
aI5
aI2
aI2
aI5
aI4
aI5
aI4
aI5
aI2
aI4
aI5
aI5
aI0
aI0
aI4
aI5
aI3
aI3
aI5
aI5
aI4
aI0
aI4
aI0
aI1
aI3
aI5
aI5
aI1
aI3
aI5
aI0
aI2
aI3
aI5
aI4
aI5
aI4
aI4
aI3
aI5
aI5
aI4
aI4
aI4
aI3
aI5
aI4
aI5
aI4
aI0
aI2
aI3
aI4
aI5
aI3
aI5
aI5
aI5
aI5
aI4
aI5
aI2
aI4
aI4
aI5
aI4
aI3
aI3
aI1
aI3
aI5
aI4
aI2
aI4
aI5
aI5
aI0
aI1
aI3
aI5
aI5
aI4
aI3
aI5
aI5
aI5
aI2
aI3
aI5
aI5
aI2
aI5
aI4
aI0
aI0
aI2
aI0
aI2
aI2
aI4
aI5
aI5
aI2
aI5
aI5
aI5
aI1
aI1
aI1
aI2
aI2
aI5
aI4
aI2
aI3
aI4
aI5
aI1
aI1
aI0
aI2
aI4
aI5
aI3
aI2
aI5
aI3
aI0
aI2
asI2013
(lp9
I4
aI5
aI4
aI1
aI3
aI5
aI2
aI5
aI1
aI4
aI0
aI0
aI0
aI5
aI0
aI3
aI0
aI5
aI0
aI5
aI2
aI4
aI3
aI3
aI0
aI0
aI2
aI5
aI4
aI3
aI4
aI0
aI0
aI3
aI4
aI4
aI1
aI4
aI5
aI4
aI5
aI5
aI4
aI3
aI3
aI2
aI0
aI4
aI5
aI1
aI5
aI2
aI3
aI3
aI2
aI4
aI1
aI2
aI4
aI0
aI0
aI0
aI1
aI1
aI1
aI3
aI3
aI4
aI2
aI4
aI3
aI5
aI3
aI0
aI4
aI1
aI3
aI2
aI3
aI4
aI5
aI2
aI4
aI5
aI0
aI5
aI3
aI1
aI0
aI3
aI4
aI2
aI0
aI3
aI3
aI2
aI0
aI0
aI4
aI3
aI5
aI2
aI2
aI3
aI0
aI3
aI4
aI1
aI4
aI3
aI0
aI5
aI5
aI4
aI2
aI1
aI4
aI2
aI0
aI4
aI5
aI5
aI4
aI4
aI0
aI1
aI0
aI0
aI0
aI0
aI0
aI0
aI0
aI3
aI3
aI4
aI4
aI4
aI3
aI2
aI4
aI1
aI5
aI2
aI4
aI2
aI0
aI2
aI1
aI1
aI1
aI4
aI3
aI0
aI0
aI3
aI1
aI0
aI0
aI1
aI5
aI0
aI4
aI0
aI3
aI0
aI1
aI3
aI1
aI0
aI3
aI5
aI2
aI4
aI0
aI3
aI2
aI5
aI4
aI5
aI0
aI2
aI4
aI4
aI1
aI4
aI1
aI1
aI0
aI1
aI1
aI5
aI4
aI5
aI5
aI5
aI1
aI5
aI4
aI3
aI3
aI5
aI3
aI5
aI3
aI3
aI1
aI4
aI3
aI5
aI4
aI3
aI4
aI4
aI5
aI1
aI3
aI2
aI2
aI2
aI2
aI4
aI1
aI2
aI0
aI3
aI5
aI2
aI2
aI0
aI5
aI4
aI5
aI0
aI4
aI3
aI4
aI0
aI0
aI4
aI1
aI2
aI3
aI1
aI1
aI4
aI5
aI5
aI3
aI3
aI3
aI5
aI2
aI2
aI2
aI3
aI3
aI4
aI3
aI1
aI2
aI5
aI3
aI3
aI4
aI5
aI3
aI2
aI4
aI3
aI4
aI0
aI0
aI0
aI0
aI0
aI4
aI5
aI0
aI0
aI0
aI1
aI2
aI4
aI2
aI0
aI0
aI1
aI1
aI4
aI0
aI1
aI3
aI2
aI0
aI0
aI0
aI0
aI1
aI0
aI3
aI5
aI5
aI2
aI4
aI4
aI5
aI4
aI2
aI2
aI3
aI3
aI4
aI5
aI4
aI2
aI3
aI5
aI5
aI3
aI4
aI3
aI3
aI4
aI0
aI0
aI3
aI0
aI0
aI5
aI4
aI4
aI0
aI0
aI3
aI4
aI2
aI3
aI2
aI4
aI3
aI5
aI4
aI3
aI3
aI2
aI0
aI5
aI4
aI4
aI4
aI1
aI5
aI3
aI3
aI2
aI2
aI0
aI4
aI1
aI0
aI5
aI0
aI4
aI5
aI5
aI5
aI0
aI0
aI0
aI2
aI0
aI1
aI0
aI0
aI0
aI5
aI5
aI5
aI5
aI4
aI2
aI4
aI2
aI5
aI2
aI1
aI3
aI4
aI0
aI1
aI1
aI1
aI1
aI0
aI3
aI1
aI3
aI5
aI0
aI2
aI2
aI2
aI4
aI1
aI4
aI5
aI0
aI0
aI5
aI1
aI2
aI3
aI4
aI3
aI1
aI4
aI5
aI4
aI4
aI3
aI3
aI3
aI4
aI3
aI2
aI3
aI1
aI0
aI0
aI0
aI0
aI0
aI0
aI2
aI1
aI4
aI0
aI0
aI3
aI4
aI4
aI4
aI2
aI4
aI4
aI0
aI5
aI2
aI5
aI2
aI0
aI2
aI1
aI0
aI1
aI2
aI1
aI0
aI3
aI3
aI1
aI5
aI4
aI0
aI1
aI0
aI4
aI3
aI3
aI3
aI4
aI2
aI1
aI1
aI1
aI5
aI4
aI5
aI5
aI4
aI4
aI2
aI5
aI4
aI4
aI4
aI3
aI5
aI1
aI0
aI0
aI2
aI5
aI0
aI3
aI4
aI5
aI3
aI3
aI3
aI5
aI4
aI5
aI5
aI4
aI3
aI4
aI2
aI2
aI2
aI2
aI3
aI4
aI2
aI0
aI0
aI2
aI5
aI5
aI4
aI4
aI2
aI3
aI1
aI4
aI3
aI4
aI4
aI4
aI4
aI4
aI1
aI5
aI5
aI4
aI2
aI3
aI3
aI4
aI5
aI5
aI1
aI1
aI2
aI3
aI3
aI4
aI4
aI4
aI4
aI1
aI2
aI4
aI5
aI5
aI5
aI5
aI5
aI5
aI5
aI0
aI3
aI4
aI3
aI2
aI1
aI5
aI2
aI5
aI4
aI4
aI4
aI5
aI4
aI3
aI1
aI0
aI0
aI0
aI2
aI3
aI5
aI5
aI4
aI5
aI2
aI0
aI2
aI2
aI1
aI0
aI1
aI0
aI0
aI4
aI1
aI1
aI2
aI5
aI5
aI4
aI5
aI5
aI3
aI5
aI2
aI5
aI5
aI5
aI4
aI5
aI2
aI1
aI4
aI3
aI2
aI4
aI4
aI4
aI5
aI3
aI5
aI2
aI0
aI5
aI3
aI3
aI3
aI5
aI5
aI4
aI3
aI2
aI0
aI3
aI0
aI0
aI3
aI3
aI3
aI2
aI1
aI3
aI4
aI5
aI3
aI3
aI3
aI3
aI4
aI4
aI4
aI4
aI1
aI4
aI4
aI5
aI5
aI5
aI5
aI3
aI4
aI3
aI0
aI0
aI1
aI0
aI1
aI1
aI4
aI0
aI2
aI0
aI2
aI0
aI3
aI5
aI4
aI4
aI5
aI3
aI5
aI2
aI5
aI2
aI5
aI5
aI3
aI3
aI3
aI4
aI3
aI3
aI2
aI4
aI2
aI3
aI5
aI5
aI5
aI5
aI4
aI3
aI3
aI3
aI3
aI5
aI1
aI4
aI1
aI5
aI1
aI0
aI1
aI0
aI2
aI2
aI0
aI5
aI2
aI1
aI1
aI4
aI3
aI3
aI1
aI0
aI4
aI1
aI4
aI3
aI0
aI0
aI0
aI3
aI3
aI4
aI3
aI3
aI3
aI3
aI5
aI0
aI2
aI4
aI3
aI2
aI3
aI2
aI0
aI5
aI2
aI4
aI2
aI3
aI1
aI5
aI0
aI3
aI0
aI2
aI1
aI1
aI3
aI1
aI1
aI4
aI3
aI3
aI4
aI0
aI3
aI4
aI0
aI0
aI1
aI3
aI0
aI2
aI5
aI3
aI3
aI0
aI4
aI2
aI0
aI1
aI0
aI0
aI0
aI0
aI0
aI3
aI5
aI2
aI3
aI1
aI0
aI2
aI0
aI2
aI3
aI5
aI5
aI3
aI5
aI5
aI0
aI0
aI0
aI0
aI0
aI0
aI1
aI0
aI0
aI5
aI3
aI0
aI3
aI3
aI2
aI2
aI5
aI0
aI0
aI0
aI4
aI4
aI0
aI0
aI0
aI5
aI0
aI3
aI5
aI0
aI2
aI0
aI1
aI5
aI0
aI5
aI5
aI1
aI3
aI4
aI4
aI0
aI0
aI3
aI4
aI5
aI1
aI1
aI3
aI3
aI4
aI5
aI2
aI2
aI3
aI4
aI2
aI0
aI5
aI5
aI4
aI4
aI0
aI0
aI1
aI4
aI5
aI5
aI5
aI5
aI5
aI4
aI5
aI4
aI5
aI5
aI2
aI1
aI3
aI3
aI5
aI1
aI2
aI3
aI2
aI0
aI5
aI5
aI5
aI4
aI2
aI2
aI4
aI4
aI3
aI3
aI2
aI4
aI3
aI5
aI1
aI0
aI3
aI2
aI1
aI0
aI1
aI4
aI0
aI2
aI4
aI5
aI3
aI5
aI4
aI5
aI4
aI4
aI2
aI5
aI0
aI0
aI0
aI0
aI4
aI4
aI0
aI1
aI4
aI0
aI1
aI1
aI1
aI1
aI2
aI1
aI4
aI2
aI3
aI0
aI5
aI4
aI4
aI5
aI4
aI5
aI4
aI4
aI5
aI5
aI3
aI5
aI4
aI3
aI5
aI5
aI2
aI3
aI2
aI2
aI1
aI3
aI0
aI4
aI3
aI3
aI5
aI5
aI3
aI4
aI0
aI0
aI4
aI2
aI3
aI4
aI5
aI5
aI2
aI4
aI4
aI5
aI3
aI5
aI3
aI1
aI1
aI1
aI3
aI2
aI3
aI4
aI1
aI4
aI0
aI0
aI3
aI3
aI3
aI1
aI0
aI2
aI0
aI2
aI0
aI0
aI4
aI3
aI5
aI3
aI4
aI3
aI4
aI3
aI1
aI2
aI2
aI0
aI5
aI5
aI3
aI4
aI4
aI5
aI4
aI3
aI3
aI5
aI4
aI2
aI2
aI3
aI3
aI4
aI5
aI2
aI3
aI2
aI2
aI1
aI3
aI4
aI3
aI0
aI4
aI3
aI2
aI2
aI4
aI2
aI0
aI0
aI2
aI1
aI3
aI3
aI3
aI0
aI0
aI4
aI3
aI0
aI4
aI5
aI4
aI3
aI1
aI4
aI3
aI3
aI5
aI5
aI2
aI3
aI4
aI4
aI3
aI2
aI4
aI0
aI3
aI0
aI0
aI0
aI0
aI0
aI0
aI5
aI5
aI5
aI2
aI4
aI5
aI3
aI5
aI3
aI3
aI4
aI4
aI4
aI0
aI1
aI4
aI1
aI4
aI4
aI4
aI2
aI3
aI1
aI4
aI1
aI4
aI5
aI5
aI3
aI0
aI0
aI0
aI4
aI4
aI1
aI5
aI0
aI2
aI1
aI5
aI5
aI3
aI1
aI1
aI3
aI4
aI2
aI2
aI0
aI3
aI3
aI3
aI2
aI0
aI2
aI3
aI4
aI2
aI5
aI2
aI1
aI1
aI0
aI0
aI0
aI0
aI0
aI1
aI0
aI3
aI1
aI0
aI0
aI0
aI0
aI0
aI0
aI0
aI0
aI0
aI0
aI1
aI1
aI0
aI4
aI2
aI0
aI0
aI1
aI0
aI0
aI3
aI2
aI2
aI0
aI4
aI2
aI2
aI4
aI5
aI4
aI4
aI5
aI0
aI3
aI3
aI0
aI2
aI3
aI3
aI5
aI3
aI4
aI4
aI0
aI2
aI3
aI0
aI3
aI3
aI0
aI0
aI0
aI0
aI0
aI1
aI2
aI3
aI0
aI1
aI2
aI1
aI0
aI3
aI0
aI1
aI1
aI1
aI4
aI0
aI0
aI0
aI1
aI0
aI5
aI4
aI2
aI4
aI4
aI4
aI0
aI5
aI4
aI2
aI5
aI4
aI4
aI5
aI0
aI3
aI2
aI2
aI3
aI4
aI3
aI4
aI3
aI2
aI4
aI3
aI5
aI3
aI4
aI3
aI3
aI2
aI0
aI0
aI1
aI4
aI2
aI0
aI5
aI3
aI5
aI4
aI2
aI3
aI1
aI4
aI0
aI1
aI0
aI2
aI4
aI3
aI0
aI1
aI0
aI3
aI1
aI1
aI2
aI2
aI3
aI2
aI3
aI2
aI0
aI0
aI2
aI1
aI0
aI3
aI4
aI3
aI3
aI0
aI1
aI0
aI2
aI0
aI0
aI1
aI1
aI1
aI0
aI1
aI3
aI0
aI0
aI5
aI4
aI3
aI4
aI4
aI4
aI0
aI2
aI2
aI1
aI0
aI0
aI5
aI5
aI0
aI4
aI5
aI5
aI2
aI2
aI0
aI2
aI1
aI0
aI4
aI0
aI1
aI1
aI2
aI0
aI1
aI0
aI5
aI3
aI3
aI0
aI2
aI1
aI0
aI0
aI4
aI3
aI3
aI0
aI0
aI2
aI4
aI2
aI0
aI2
aI3
aI1
aI1
aI3
aI0
aI4
aI4
aI3
aI3
aI3
aI5
aI1
aI0
aI1
aI2
aI2
aI2
aI5
aI0
aI0
aI3
aI4
aI1
aI0
aI0
aI0
aI4
aI0
aI5
aI3
aI4
aI3
aI2
aI4
aI3
aI3
aI0
aI4
aI1
aI1
aI0
aI3
aI3
aI4
aI1
aI3
aI3
aI4
aI2
aI3
aI3
aI4
aI4
aI4
aI3
aI3
aI4
aI2
aI5
aI2
aI3
aI5
aI5
aI4
aI2
aI1
aI4
aI1
aI0
aI0
aI1
aI0
aI5
aI0
aI4
aI2
aI5
aI5
aI5
aI5
aI4
aI2
aI5
aI5
aI3
aI1
aI0
aI5
aI4
aI2
aI3
aI3
aI5
aI2
aI4
aI5
aI4
aI1
aI3
aI2
aI0
aI3
aI1
aI1
aI1
aI3
aI4
aI5
aI5
aI5
aI1
aI3
aI0
aI3
aI4
aI2
aI1
aI3
aI2
aI5
aI3
aI4
aI3
aI3
aI3
aI2
aI2
aI0
aI2
aI3
aI2
aI3
aI4
aI0
aI1
aI0
aI4
aI5
aI1
aI4
aI2
aI4
aI4
aI2
aI2
aI4
aI4
aI4
aI4
aI5
aI4
aI5
aI0
aI5
aI0
aI1
aI5
aI4
aI0
aI4
aI5
aI4
aI5
aI2
aI3
aI0
aI0
aI0
aI0
aI4
aI3
aI5
aI4
aI3
aI2
aI1
aI5
aI4
aI5
aI3
aI2
aI4
aI5
aI5
aI4
aI3
aI1
aI3
aI0
aI1
aI0
aI2
aI3
aI1
aI3
aI2
aI3
aI2
aI3
aI5
aI5
aI1
aI3
aI5
aI5
aI5
aI5
aI5
aI3
aI5
aI2
aI4
aI3
aI5
aI1
aI4
aI3
aI5
aI5
aI0
aI5
aI4
aI5
aI5
aI0
aI5
aI4
aI3
aI5
aI2
aI4
aI3
aI0
aI1
aI4
aI4
aI3
aI3
aI5
aI2
aI4
aI5
aI1
aI4
aI3
aI4
aI3
aI4
aI5
aI5
aI0
aI4
aI5
aI4
aI1
aI1
aI4
aI5
aI2
aI2
aI0
aI5
aI1
aI3
aI3
aI5
aI4
aI3
aI5
aI1
aI4
aI4
aI0
aI2
aI3
aI4
aI5
aI2
aI3
aI2
aI3
aI3
aI1
aI4
aI3
aI5
aI4
aI5
aI5
aI5
aI5
aI5
aI5
aI5
aI5
aI5
aI5
aI5
aI3
aI5
aI3
aI5
aI2
aI4
aI4
aI5
aI5
aI1
aI4
aI4
aI5
aI4
aI2
aI4
aI5
aI4
aI4
aI3
aI4
aI4
aI3
aI0
aI3
aI0
aI5
aI3
aI0
aI3
aI1
aI2
aI3
aI3
aI2
aI3
aI2
aI3
aI1
aI5
aI4
aI0
aI0
aI2
aI2
aI2
aI2
aI2
aI2
aI1
aI3
aI2
aI3
aI1
aI1
aI0
aI1
aI5
aI0
aI3
aI4
aI5
aI4
aI5
aI3
aI4
aI1
aI3
aI5
aI2
aI3
aI5
aI3
aI4
aI5
aI4
aI3
aI3
aI5
aI5
aI2
aI5
aI3
aI4
aI0
aI1
aI1
aI4
aI1
aI0
aI0
aI0
aI0
aI1
aI1
aI5
aI3
aI2
aI3
aI4
aI3
aI2
aI3
aI2
aI1
aI1
aI4
aI4
aI3
aI1
aI0
aI3
aI3
aI1
aI2
aI4
aI1
aI0
aI5
aI1
aI3
aI3
aI4
aI4
aI2
aI4
aI0
aI0
aI4
aI5
aI1
aI1
aI2
aI2
aI2
aI3
aI3
aI5
aI2
aI1
aI3
aI5
aI5
aI5
aI5
aI5
aI0
aI5
aI4
aI3
aI0
aI2
aI4
aI1
aI4
aI4
aI4
aI4
aI3
aI5
aI2
aI4
aI2
aI2
aI0
aI2
aI0
aI0
aI5
aI4
aI0
aI5
aI0
aI0
aI0
aI0
aI4
aI5
aI4
aI1
aI3
aI1
aI3
aI5
aI1
aI2
aI4
aI5
aI4
aI2
aI5
aI4
aI3
aI0
aI2
aI4
aI2
aI3
aI5
aI3
aI4
aI3
aI2
aI3
aI2
aI3
aI4
aI0
aI0
aI0
aI0
aI3
aI4
aI4
aI2
aI1
aI3
aI3
aI2
aI5
aI3
aI1
aI5
aI3
aI3
aI3
aI5
aI3
aI2
aI3
aI5
aI4
aI2
aI2
aI2
aI4
aI2
aI4
aI3
aI5
aI5
aI5
aI3
aI3
aI5
aI5
aI5
aI3
aI4
aI4
aI4
aI4
aI5
aI4
aI2
aI0
aI3
aI1
aI2
aI2
aI0
aI3
aI1
aI0
aI1
aI4
aI0
aI0
aI2
aI0
aI5
aI5
aI5
aI5
aI4
aI5
aI5
aI5
aI4
aI5
aI5
aI5
aI2
aI4
aI4
aI4
aI5
aI3
aI3
aI4
aI1
aI3
aI5
aI5
aI3
aI1
aI4
aI1
aI4
aI3
aI0
aI3
aI2
aI0
aI3
aI3
aI4
aI1
aI2
aI1
aI1
aI3
aI1
aI2
aI1
aI4
aI1
aI0
aI4
aI2
aI1
aI0
aI0
aI3
aI2
aI4
aI5
aI5
aI5
aI5
aI0
aI3
aI4
aI4
aI5
aI1
aI1
aI0
aI4
aI1
aI5
aI1
aI1
aI1
aI4
aI0
aI1
aI1
aI1
aI0
aI1
aI0
aI0
aI0
aI0
aI0
aI1
aI0
aI1
aI0
aI1
aI2
aI4
aI0
aI0
aI3
aI5
aI4
aI2
aI0
aI1
aI2
aI1
aI4
aI2
aI1
aI4
aI4
aI4
aI2
aI5
aI3
aI5
aI3
aI3
aI3
aI3
aI5
aI1
aI1
aI1
aI3
aI5
aI3
aI2
aI0
aI0
aI0
aI4
aI2
aI4
aI0
aI0
aI5
aI1
aI1
aI1
aI4
aI3
aI3
aI2
aI4
aI2
aI5
aI2
aI1
aI2
aI1
aI3
aI0
aI2
aI0
aI4
aI0
aI5
aI2
aI3
aI5
aI4
aI5
aI1
aI5
aI4
aI4
aI5
aI1
aI4
aI3
aI5
aI5
aI5
aI5
aI3
aI1
aI4
aI5
aI3
aI5
aI3
aI0
aI2
aI4
aI1
aI1
aI5
aI5
aI5
aI4
aI5
aI4
aI4
aI5
aI5
aI0
aI3
aI2
aI1
aI3
aI3
aI0
aI5
aI0
aI0
aI2
aI1
aI4
aI0
aI2
aI5
aI5
aI4
aI3
aI5
aI5
aI5
aI0
aI1
aI2
aI3
aI0
aI0
aI3
aI0
aI0
aI2
aI3
aI5
aI0
aI3
aI5
aI3
aI2
aI4
aI4
aI4
aI3
aI2
aI4
aI4
aI4
aI3
aI3
aI4
aI5
aI4
aI3
aI4
aI3
aI5
aI4
aI1
aI3
aI0
aI4
aI5
aI5
aI4
aI4
aI2
aI3
aI5
aI5
aI5
aI4
aI2
aI4
aI1
aI1
aI1
aI5
aI5
aI3
aI5
aI4
aI3
aI5
aI5
aI5
aI4
aI5
aI3
aI5
aI1
aI2
aI1
aI2
aI0
aI0
aI1
aI2
aI3
aI3
aI0
aI0
aI1
aI5
aI0
aI0
aI0
aI0
aI0
aI0
aI3
aI2
aI3
aI3
aI5
aI5
aI5
aI5
aI3
aI1
aI3
aI0
aI0
aI3
aI2
aI1
aI3
aI0
aI3
aI0
aI3
aI3
aI1
aI0
aI1
aI5
aI2
aI3
aI4
aI3
aI5
aI4
aI3
aI4
aI5
aI3
aI2
aI1
aI1
aI1
aI0
aI0
aI0
aI0
aI0
aI0
aI1
aI3
aI5
aI2
aI1
aI5
aI5
aI2
aI5
aI5
aI5
aI5
aI4
aI5
aI3
aI1
aI0
aI2
aI1
aI3
aI2
aI1
aI1
aI1
aI1
aI0
aI1
aI0
aI0
aI4
aI5
aI4
aI5
aI5
aI4
aI5
aI3
aI5
aI3
aI3
aI1
aI3
aI2
aI2
aI5
aI2
aI5
aI3
aI3
aI3
aI4
aI4
aI1
aI0
aI1
aI2
aI1
aI1
aI0
aI0
aI1
aI0
aI0
aI0
aI1
aI1
aI1
aI0
aI4
aI2
aI4
aI0
aI3
aI0
aI3
aI0
aI2
aI2
aI1
aI3
aI0
aI0
aI0
aI3
aI5
aI3
aI3
aI3
aI4
aI0
aI0
aI0
aI2
aI5
aI5
aI4
aI4
aI5
aI3
aI3
aI3
aI4
aI5
aI3
aI3
aI3
aI4
aI3
aI2
aI1
aI2
aI2
aI3
aI3
aI0
aI1
aI1
aI0
aI5
aI0
aI0
aI4
aI3
aI0
aI2
aI3
aI3
aI2
aI1
aI3
aI3
aI2
aI2
aI0
aI3
aI2
aI4
aI3
aI3
aI5
aI0
aI5
aI3
aI0
aI5
aI0
aI3
aI2
aI5
aI5
aI4
aI4
aI5
aI3
aI0
aI1
aI0
aI4
aI1
aI0
aI0
aI0
aI0
aI0
aI4
aI0
aI4
aI3
aI2
aI0
aI0
aI0
aI3
aI1
aI0
aI1
aI2
aI0
aI0
aI3
aI3
aI2
aI1
aI4
aI5
aI4
aI3
aI4
aI5
aI3
aI4
aI3
aI4
aI4
aI3
aI4
aI0
aI0
aI1
aI5
aI4
aI0
aI1
aI4
aI0
aI3
aI1
aI2
aI3
aI2
aI4
aI3
aI0
aI0
aI0
aI2
aI1
aI2
aI0
aI3
aI0
aI4
aI4
aI4
aI5
aI4
aI3
aI5
aI4
aI2
aI0
aI3
aI3
aI5
aI0
aI1
aI4
aI5
aI4
aI0
aI0
aI2
aI3
aI0
aI4
aI3
aI2
aI2
aI4
aI1
aI3
aI0
aI1
aI1
aI0
aI0
aI3
aI0
aI1
aI0
aI0
aI0
aI0
aI0
aI0
aI1
aI0
aI0
aI1
aI0
aI0
aI0
aI2
aI0
aI0
aI1
aI0
aI1
aI0
aI4
aI4
aI4
aI3
aI4
aI4
aI2
aI2
aI0
aI3
aI4
aI5
aI1
aI5
aI3
aI3
aI0
aI2
aI5
aI2
aI4
aI2
aI4
aI0
aI2
aI0
aI0
aI1
aI0
aI2
aI4
aI3
aI1
aI0
aI2
aI2
aI2
aI4
aI5
aI2
aI3
aI4
aI5
aI3
aI3
aI4
aI5
aI3
aI3
aI4
aI0
aI3
aI4
aI2
aI3
aI5
aI5
aI1
aI2
aI2
aI4
aI4
aI2
aI4
aI3
aI3
aI0
aI0
aI0
aI3
aI3
aI0
aI5
aI3
aI0
aI4
aI4
aI2
aI0
aI3
aI1
aI4
aI5
aI3
aI4
aI4
aI3
aI4
aI4
aI2
aI0
aI2
aI2
aI5
aI5
aI2
aI2
aI0
aI3
aI0
aI0
aI4
aI4
aI5
aI5
aI3
aI5
aI2
aI5
aI4
aI5
aI5
aI4
aI5
aI2
aI3
aI5
aI4
aI5
aI4
aI5
aI5
aI3
aI2
aI0
aI1
aI3
aI3
aI3
aI3
aI4
aI1
aI4
aI2
aI1
aI4
aI1
aI2
aI1
aI4
aI0
aI0
aI0
aI0
aI1
aI4
aI1
aI1
aI0
aI4
aI4
aI1
aI2
aI0
aI1
aI4
aI2
aI3
aI3
aI0
aI0
aI2
aI0
aI1
aI0
aI1
aI1
aI0
aI0
aI1
aI4
aI3
aI0
aI2
aI1
aI1
aI0
aI4
aI0
aI0
aI0
aI5
aI3
aI1
aI0
aI0
aI0
aI1
aI0
aI3
aI3
aI2
aI4
aI2
aI1
aI3
aI1
aI4
aI3
aI4
aI4
aI5
aI4
aI4
aI3
aI3
aI4
aI2
aI1
aI2
aI1
aI3
aI4
aI1
aI0
aI3
aI4
aI3
aI2
aI4
aI5
aI3
aI5
aI4
aI5
aI4
aI3
aI3
aI4
aI1
aI5
aI0
aI5
aI3
aI5
aI3
aI2
aI4
aI5
aI5
aI4
aI1
aI5
aI0
aI2
aI3
aI5
aI3
aI1
aI4
aI0
aI1
aI0
aI2
aI1
aI3
aI3
aI5
aI0
aI5
aI3
aI4
aI0
aI0
aI5
aI4
aI5
aI3
aI0
aI4
aI2
aI5
aI2
aI2
aI0
aI0
aI3
aI3
aI1
aI3
aI5
aI0
aI0
aI1
aI3
aI5
aI2
aI4
aI3
aI5
aI4
aI3
aI2
aI2
aI0
aI3
aI4
aI1
aI3
aI5
aI5
aI5
aI2
aI5
aI5
aI4
aI3
aI4
aI5
aI5
aI5
aI3
aI2
aI5
aI5
aI2
aI3
aI1
aI2
aI1
aI1
aI3
aI3
aI3
aI0
aI4
aI1
aI0
aI3
aI2
aI3
aI1
aI3
aI1
aI5
aI3
aI3
aI3
aI4
aI3
aI0
aI1
aI3
aI3
aI2
aI0
aI1
aI4
aI0
aI2
aI0
aI4
aI2
aI1
aI5
aI3
aI0
aI0
aI1
aI5
aI1
aI0
aI2
aI5
aI5
aI2
aI4
aI0
aI5
aI3
aI4
aI5
aI4
aI4
aI3
aI3
aI4
aI4
aI1
aI2
aI5
aI4
aI4
aI4
aI1
aI2
aI1
aI5
aI3
aI3
aI5
aI3
aI2
aI1
aI2
aI4
aI0
aI1
aI3
aI2
aI3
aI1
aI2
aI3
aI0
aI4
aI0
aI5
aI4
aI3
aI2
aI4
aI5
aI5
aI5
aI4
aI3
aI0
aI3
aI3
aI4
aI1
aI2
aI5
aI4
aI3
aI2
aI4
aI4
aI3
aI1
aI5
aI4
aI3
aI0
aI5
aI2
aI5
aI4
aI3
aI0
aI1
aI2
aI2
aI1
aI2
aI4
aI5
aI5
aI5
aI5
aI0
aI5
aI5
aI4
aI5
aI3
aI1
aI5
aI5
aI3
aI4
aI4
aI4
aI2
aI5
aI5
aI5
aI4
aI5
aI3
aI3
aI4
aI2
aI1
aI3
aI0
aI3
aI5
aI3
aI5
aI4
aI5
aI3
aI4
aI3
aI1
aI3
aI1
aI3
aI0
aI4
aI5
aI1
aI2
aI1
aI4
aI5
aI1
aI2
aI2
aI5
aI3
aI3
aI1
aI4
aI3
aI1
aI3
aI0
aI0
aI3
aI3
aI1
aI2
aI3
aI4
aI1
aI3
aI1
aI2
aI4
aI2
aI2
aI0
aI1
aI1
aI4
aI1
aI2
aI1
aI5
aI4
aI0
aI4
aI4
aI3
aI2
aI5
aI5
aI3
aI4
aI5
aI3
aI5
aI4
aI3
aI5
aI2
aI4
aI3
aI2
aI3
aI3
aI0
aI4
aI4
aI3
aI4
aI5
aI3
aI4
aI0
aI5
aI4
aI1
aI3
aI0
aI5
aI5
aI4
aI0
aI5
aI2
aI3
aI4
aI3
aI4
aI2
aI3
aI2
aI2
aI4
aI4
aI3
aI3
aI0
aI4
aI4
aI3
aI4
aI4
aI3
aI1
aI4
aI1
aI2
aI5
aI2
aI5
aI4
aI2
aI2
aI2
aI1
aI4
aI2
aI0
aI0
aI1
aI4
aI2
aI5
aI2
aI3
aI3
aI0
aI4
aI4
aI0
aI0
aI1
aI5
aI1
aI3
aI2
aI0
aI0
aI4
aI0
aI3
aI0
aI0
aI3
aI5
aI4
aI0
aI3
aI5
aI4
aI4
aI2
aI5
aI3
aI2
aI3
aI1
aI3
aI5
aI4
aI5
aI5
aI4
aI5
aI4
aI1
aI5
aI4
aI3
aI4
aI5
aI1
aI3
aI5
aI3
aI3
aI1
aI4
aI2
aI2
aI2
aI4
aI4
aI2
aI3
aI3
aI0
aI1
aI0
aI5
aI0
aI0
aI0
aI2
aI4
aI4
aI0
aI5
aI0
aI4
aI0
aI1
aI0
aI0
aI2
aI4
aI2
aI1
aI3
aI1
aI4
aI3
aI5
aI1
aI4
aI2
aI3
aI3
aI3
aI3
aI0
aI0
aI5
aI4
aI0
aI2
aI0
aI5
aI4
aI0
aI1
aI1
aI4
aI3
aI5
aI3
aI4
aI1
aI3
aI5
aI4
aI0
aI2
aI4
aI3
aI1
aI3
aI2
aI5
aI5
aI1
aI0
aI0
aI5
aI5
aI3
aI5
aI4
aI0
aI2
aI2
aI3
aI0
aI2
aI0
aI0
aI3
aI4
aI5
aI4
aI5
aI3
aI2
aI5
aI4
aI4
aI3
aI5
aI4
aI3
aI2
aI4
aI4
aI3
aI4
aI3
aI4
aI1
aI1
aI2
aI4
aI4
aI0
aI0
aI2
aI4
aI1
aI5
aI3
aI3
aI3
aI2
aI3
aI2
aI3
aI5
aI5
aI5
aI3
aI3
aI5
aI3
aI0
aI4
aI3
aI5
aI3
aI0
aI3
aI1
aI0
aI1
aI0
aI0
aI1
aI0
aI2
aI2
aI0
aI1
aI0
aI2
aI1
aI0
aI1
aI0
aI1
aI1
aI1
aI3
aI0
aI0
aI4
aI1
aI3
aI5
aI1
aI0
aI4
aI2
aI1
aI1
aI0
aI2
aI2
aI1
aI4
aI5
aI4
aI0
aI3
aI0
aI0
aI0
aI4
aI1
aI1
aI5
aI4
aI5
aI0
aI4
aI5
aI4
aI5
aI5
aI5
aI5
aI5
aI5
aI5
aI5
aI5
aI5
aI5
aI1
aI5
aI4
aI4
aI1
aI5
aI0
aI4
aI1
aI1
aI2
aI5
aI5
aI5
aI2
aI1
aI2
aI4
aI4
aI5
aI3
aI3
aI3
aI3
aI2
aI2
aI0
aI4
aI3
aI0
aI3
aI3
aI1
aI5
aI0
aI4
aI2
aI5
aI5
aI5
aI4
aI2
aI5
aI4
aI5
aI5
aI4
aI5
aI5
aI0
aI2
aI3
aI0
aI1
aI3
aI3
aI5
aI3
aI4
aI2
aI2
aI5
aI2
aI4
aI4
aI4
aI1
aI1
aI0
aI4
aI5
aI0
aI2
aI0
aI3
aI4
aI2
aI4
aI1
aI5
aI3
aI2
aI1
aI0
aI1
aI2
aI2
aI2
aI2
aI1
aI1
aI0
aI0
aI0
aI4
aI5
aI4
aI5
aI5
aI5
aI3
aI5
aI0
aI1
aI0
aI1
aI0
aI1
aI0
aI0
aI0
aI2
aI0
aI0
aI1
aI3
aI5
aI3
aI4
aI2
aI2
aI5
aI3
aI4
aI4
aI5
aI4
aI1
aI3
aI1
aI2
aI1
aI2
aI4
aI4
aI2
aI3
aI4
aI3
aI5
aI1
aI5
aI3
aI3
aI2
aI5
aI4
aI1
aI1
aI4
aI1
aI4
aI1
aI0
aI2
aI1
aI2
aI3
aI0
aI4
aI2
aI5
aI0
aI2
aI3
aI3
aI2
aI1
aI2
aI2
aI2
aI4
aI4
aI4
aI1
aI4
aI2
aI3
aI5
aI2
aI2
aI3
aI3
aI0
aI0
aI1
aI0
aI1
aI1
aI3
aI2
aI1
aI0
aI0
aI5
aI2
aI3
aI5
aI4
aI5
aI5
aI5
aI5
aI5
aI5
aI4
aI5
aI5
aI3
aI5
aI3
aI3
aI2
aI2
aI2
aI3
aI5
aI5
aI2
aI4
aI4
aI3
aI5
aI0
aI3
aI1
aI0
aI2
aI1
aI1
aI1
aI3
aI1
aI4
aI5
aI4
aI5
aI0
aI0
aI0
aI3
aI1
aI0
aI0
aI0
aI0
aI3
aI2
aI4
aI3
aI4
aI4
aI3
aI0
aI2
aI5
aI0
aI2
aI3
aI3
aI3
aI3
aI0
aI0
aI5
aI3
aI4
aI5
aI1
aI0
aI3
aI0
aI0
aI3
aI3
aI4
aI3
aI3
aI3
aI4
aI5
aI2
aI5
aI3
aI4
aI3
aI1
aI5
aI5
aI0
aI5
aI1
aI4
aI2
aI5
aI3
aI5
aI0
aI2
aI4
aI5
aI5
aI1
aI1
aI5
aI4
aI1
aI2
aI1
aI4
aI2
aI2
aI5
aI5
aI5
aI2
aI5
aI5
aI4
aI4
aI3
aI2
aI3
aI4
aI2
aI4
aI4
aI4
aI5
aI5
aI1
aI2
aI2
aI5
aI4
aI5
aI5
aI4
aI2
aI3
aI3
aI5
aI2
aI5
aI5
aI5
aI0
aI1
aI2
aI5
aI4
aI3
aI3
aI3
aI5
aI3
aI4
aI5
aI5
aI2
aI5
aI5
aI3
aI0
aI3
aI3
aI3
aI4
aI4
aI3
aI3
aI5
aI0
aI1
aI1
aI1
aI0
aI5
aI4
aI4
aI3
aI1
aI1
aI4
aI0
aI2
aI3
aI0
aI5
aI2
aI4
aI5
aI0
aI0
aI0
aI3
aI1
aI0
aI0
aI0
aI0
aI2
aI0
aI0
aI0
aI5
aI5
aI3
aI4
aI5
aI2
aI1
aI5
aI1
aI4
aI5
aI4
aI5
aI3
aI4
aI0
aI5
aI1
aI0
aI0
aI5
aI5
aI5
aI3
aI4
aI4
aI3
aI1
aI2
aI3
aI5
aI4
aI1
aI2
aI4
aI3
aI5
aI4
aI4
aI5
aI5
aI5
aI5
aI5
aI4
aI5
aI5
aI5
aI5
aI4
aI5
aI4
aI1
aI3
aI1
aI2
aI4
aI0
aI2
aI3
aI5
aI2
aI4
aI5
aI4
aI2
aI3
aI3
aI5
aI5
aI5
aI5
aI5
aI5
aI5
aI2
aI4
aI2
aI2
aI1
aI3
aI4
aI5
aI3
aI5
aI5
aI4
aI2
aI5
aI3
aI5
aI5
aI1
aI4
aI4
aI5
aI2
aI0
aI2
aI5
aI1
aI4
aI0
aI1
aI0
aI0
aI4
aI0
aI0
aI0
aI2
aI0
aI1
aI1
aI0
aI1
aI4
aI0
aI2
aI0
aI0
aI0
aI2
aI4
aI0
aI3
aI0
aI0
aI4
aI1
aI0
aI1
aI2
aI0
aI1
aI0
aI4
aI1
aI0
aI1
aI3
aI4
aI5
aI1
aI4
aI4
aI5
aI3
aI5
aI5
aI5
aI0
aI1
aI2
aI0
aI1
aI0
aI1
aI0
aI0
aI1
aI0
aI3
aI0
aI0
aI0
aI1
aI4
aI2
aI0
aI0
aI0
aI4
aI0
aI0
aI0
aI0
aI0
aI1
aI0
aI0
aI1
aI1
aI0
aI0
aI4
aI5
aI0
aI0
aI5
aI4
aI3
aI2
aI1
aI5
aI4
aI2
aI3
aI5
aI0
aI4
aI4
aI1
aI0
aI4
aI4
aI4
aI5
aI5
aI4
aI5
aI2
aI2
aI3
aI1
aI0
aI1
aI3
aI3
aI2
aI3
aI0
aI1
aI4
aI0
aI3
aI4
aI5
aI5
aI5
aI1
aI3
aI3
aI5
aI1
aI4
aI5
aI2
aI2
aI3
aI5
aI5
aI5
aI4
aI4
aI5
aI3
aI5
aI4
aI3
aI2
aI5
aI2
aI4
aI2
aI2
aI3
aI0
aI0
aI0
aI0
aI0
aI1
aI0
aI0
aI0
aI5
aI5
aI4
aI5
aI5
aI5
aI5
aI5
aI5
aI5
aI3
aI4
aI0
aI1
aI1
aI5
aI4
aI2
aI0
aI3
aI4
aI3
aI0
aI0
aI3
aI1
aI0
aI4
aI0
aI3
aI1
aI0
aI4
aI5
aI0
aI1
aI0
aI0
aI2
aI0
aI2
aI0
aI4
aI0
aI1
aI5
aI2
aI0
aI0
aI0
aI1
aI0
aI1
aI0
aI1
aI1
aI4
aI2
aI0
aI0
aI0
aI0
aI4
aI2
aI0
aI4
aI0
aI0
aI1
aI1
aI0
aI3
aI3
aI2
aI0
aI1
aI0
aI0
aI3
aI0
aI1
aI0
aI0
aI4
aI2
aI1
aI3
aI4
aI3
aI2
aI1
aI1
aI4
aI0
aI4
aI1
aI0
aI1
aI1
aI5
aI1
aI1
aI4
aI0
aI1
aI3
aI2
aI5
aI3
aI3
aI3
aI4
aI3
aI4
aI4
aI3
aI1
aI2
aI2
aI5
aI4
aI3
aI4
aI3
aI4
aI3
aI5
aI5
aI4
aI4
aI5
aI5
aI3
aI2
aI1
aI3
aI4
aI1
aI4
aI5
aI5
aI5
aI2
aI5
aI5
aI4
aI5
aI3
aI4
aI2
aI3
aI2
aI4
aI1
aI3
aI4
aI3
aI4
aI3
aI2
aI2
aI2
aI0
aI2
aI1
aI0
aI3
aI0
aI3
aI1
aI0
aI1
aI0
aI3
aI0
aI0
aI4
aI3
aI3
aI4
aI2
aI4
aI4
aI2
aI0
aI5
aI5
aI3
aI2
aI3
aI4
aI4
aI3
aI3
aI4
aI3
aI0
aI4
aI4
aI2
aI1
aI2
aI1
aI4
aI5
aI5
aI3
aI5
aI3
aI4
aI1
aI2
aI3
aI1
aI5
aI5
aI5
aI4
aI3
aI4
aI5
aI2
aI2
aI1
aI5
aI5
aI3
aI3
aI3
aI2
aI5
aI1
aI1
aI2
aI0
aI5
aI3
aI2
aI4
aI4
aI4
aI4
aI5
aI5
aI2
aI3
aI2
aI3
aI4
aI4
aI3
aI5
aI5
aI4
aI3
aI4
aI5
aI5
aI2
aI4
aI4
aI2
aI5
aI5
aI5
aI5
aI2
aI4
aI5
aI5
aI5
aI3
aI5
aI4
aI4
aI3
aI1
aI3
aI5
aI4
aI3
aI0
aI0
aI4
aI4
aI3
aI3
aI1
aI3
aI4
aI1
aI5
aI2
aI4
aI4
aI3
aI0
aI1
aI5
aI5
aI2
aI4
aI5
aI3
aI4
aI5
aI4
aI4
aI4
aI5
aI4
aI5
aI3
aI3
aI2
aI4
aI5
aI4
aI3
aI5
aI1
aI4
aI5
aI2
aI3
aI5
aI5
aI4
aI5
aI4
aI5
aI4
aI5
aI3
aI4
aI3
aI1
aI0
aI3
aI1
aI2
aI1
aI2
aI2
aI5
aI5
aI2
aI3
aI5
aI5
aI4
aI5
aI3
aI5
aI4
aI5
aI5
aI4
aI3
aI5
aI4
aI5
aI4
aI3
aI0
aI5
aI3
aI4
aI4
aI2
aI1
aI5
aI3
aI4
aI0
aI3
aI3
aI3
aI3
aI4
aI1
aI3
aI4
aI5
aI4
aI5
aI2
aI4
aI5
aI3
aI5
aI4
aI5
aI4
aI4
aI2
aI5
aI4
aI4
aI5
aI5
aI5
aI3
aI5
aI4
aI3
aI5
aI4
aI5
aI4
aI5
aI5
aI3
aI4
aI5
aI4
aI5
aI5
aI2
aI5
aI3
aI5
aI2
aI3
aI4
aI3
aI2
aI1
aI5
aI3
aI1
aI2
aI5
aI4
aI4
aI4
aI5
aI3
aI5
aI2
aI3
aI4
aI5
aI5
aI4
aI5
aI4
aI0
aI5
aI5
aI4
aI4
aI2
aI5
aI4
aI4
aI4
aI3
aI5
aI5
aI5
aI2
aI4
aI5
aI0
aI0
aI4
aI3
aI3
aI2
aI2
aI0
aI3
aI4
aI3
aI2
aI4
aI4
aI4
aI2
aI2
aI1
aI3
aI2
aI3
aI2
aI3
aI4
aI4
aI3
aI1
aI3
aI3
aI4
aI4
aI3
aI2
aI4
aI4
aI3
aI2
aI2
aI4
aI5
aI4
aI5
aI4
aI4
aI2
aI4
aI4
aI4
aI4
aI3
aI3
aI5
aI2
aI3
aI5
aI5
aI2
aI4
aI4
aI2
aI2
aI4
aI4
aI3
aI5
aI3
aI3
aI0
aI4
aI3
aI3
aI4
aI4
aI2
aI4
aI3
aI4
aI4
aI3
aI3
aI3
aI3
aI2
aI3
aI2
aI1
aI2
aI3
aI5
aI4
aI2
aI2
aI4
aI3
aI4
aI4
aI4
aI3
aI3
aI4
aI5
aI4
aI3
aI1
aI4
aI4
aI2
aI3
aI4
aI5
aI1
aI4
aI2
aI4
aI1
aI4
aI2
aI3
aI4
aI1
aI2
aI1
aI0
aI4
aI2
aI2
aI2
aI4
aI4
aI2
aI4
aI3
aI2
aI2
aI4
aI4
aI2
aI2
aI2
aI3
aI5
aI3
aI4
aI4
aI5
aI2
aI4
aI3
aI3
aI3
aI2
aI4
aI2
aI5
aI4
aI5
aI3
aI5
aI2
aI4
aI3
aI4
aI2
aI3
aI3
aI3
aI4
aI2
aI4
aI4
aI4
aI2
aI4
aI4
aI3
aI2
aI2
aI3
aI5
aI4
aI5
aI3
aI2
aI5
aI3
aI5
aI1
aI3
aI4
aI1
aI3
aI3
aI2
aI3
aI3
aI3
aI3
aI1
aI1
aI4
aI3
aI3
aI4
aI0
aI2
aI3
aI5
aI2
aI3
aI3
aI2
aI3
aI4
aI5
aI3
aI4
aI1
aI4
aI5
aI4
aI3
aI2
aI0
aI5
aI4
aI5
aI4
aI2
aI2
aI4
aI4
aI2
aI3
aI3
aI1
aI4
aI4
aI4
aI5
aI5
aI5
aI5
aI5
aI4
aI3
aI5
aI5
aI5
aI3
aI1
aI4
aI3
aI2
aI4
aI4
aI3
aI4
aI3
aI2
aI4
aI1
aI1
aI3
aI5
aI5
aI5
aI5
aI3
aI2
aI0
aI4
aI1
aI3
aI0
aI3
aI3
aI3
aI3
aI0
aI3
aI4
aI5
aI3
aI5
aI2
aI4
aI2
aI5
aI5
aI1
aI2
aI3
aI5
aI2
aI5
aI2
aI5
aI5
aI3
aI5
aI2
aI3
aI2
aI5
aI2
aI4
aI5
aI5
aI5
aI3
aI5
aI2
aI5
aI4
aI5
aI5
aI5
aI2
aI4
aI2
aI2
aI5
aI4
aI5
aI2
aI4
aI5
aI4
aI5
aI3
aI1
aI4
aI0
aI0
aI4
aI1
aI0
aI1
aI1
aI0
aI2
aI5
aI4
aI5
aI3
aI5
aI5
aI4
aI5
aI2
aI3
aI5
aI1
aI1
aI2
aI5
aI4
aI4
aI5
aI1
aI5
aI2
aI0
aI5
aI5
aI1
aI1
aI5
aI4
aI5
aI0
aI2
aI4
aI5
aI4
aI5
aI5
aI4
aI4
aI3
aI2
aI2
aI5
aI5
aI5
aI4
aI2
aI5
aI5
aI3
aI2
aI5
aI4
aI5
aI1
aI5
aI4
aI1
aI1
aI4
aI5
aI4
aI3
aI3
aI5
aI4
aI5
aI3
aI5
aI5
aI5
aI5
aI3
aI4
aI5
aI5
aI3
aI4
aI3
aI5
aI5
aI3
aI4
aI4
aI3
aI4
aI3
aI4
aI2
aI3
aI4
aI4
aI3
aI1
aI5
aI4
aI2
aI4
aI2
aI5
aI0
aI2
aI2
aI2
aI0
aI3
aI2
aI3
aI0
aI1
aI4
aI4
aI4
aI4
aI2
aI5
aI4
aI3
aI4
aI4
aI5
aI3
aI3
aI3
aI4
aI5
aI3
aI5
aI2
aI5
aI3
aI3
aI4
aI3
aI4
aI4
aI1
aI2
aI3
aI3
aI3
aI4
aI5
aI3
aI4
aI3
aI5
aI3
aI5
aI3
aI5
aI3
aI4
aI5
aI5
aI3
aI2
aI2
aI5
aI4
aI2
aI5
aI5
aI5
aI5
aI4
aI4
aI2
aI5
aI3
aI3
aI1
aI3
aI3
aI4
aI4
aI3
aI5
aI5
aI5
aI2
aI2
aI0
aI1
aI1
aI3
aI4
aI2
aI3
aI5
aI3
aI5
aI5
aI4
aI5
aI3
aI4
aI5
aI4
aI2
aI2
aI3
aI3
aI3
aI4
aI2
aI5
aI3
aI5
aI4
aI4
aI3
aI0
aI4
aI2
aI3
aI4
aI4
aI2
aI3
aI5
aI3
aI2
aI3
aI3
aI5
aI5
aI3
aI4
aI3
aI4
aI5
aI5
aI3
aI3
aI4
aI4
aI3
aI3
aI5
aI3
aI4
aI5
aI5
aI5
aI5
aI4
aI5
aI4
aI3
aI4
aI3
aI4
aI1
aI0
aI5
aI4
aI0
aI2
aI1
aI0
aI3
aI3
aI0
aI2
aI1
aI1
aI0
aI4
aI5
aI0
aI1
aI3
aI2
aI0
aI5
aI2
aI0
aI1
aI4
aI1
aI1
aI4
aI1
aI3
aI5
aI5
aI0
aI0
aI5
aI3
aI0
aI5
aI5
aI3
aI0
aI0
aI1
aI2
aI2
aI0
aI2
aI5
aI4
aI3
aI2
aI3
aI2
aI0
aI2
aI5
aI1
aI3
aI1
aI3
aI3
aI0
aI4
aI4
aI4
aI1
aI0
aI1
aI3
aI0
aI0
aI0
aI0
aI5
aI4
aI3
aI3
aI5
aI0
aI3
aI3
aI1
aI0
aI2
aI5
aI1
aI5
aI4
aI5
aI4
aI2
aI3
aI5
aI5
aI4
aI2
aI4
aI5
aI5
aI2
aI4
aI4
aI4
aI4
aI1
aI5
aI5
aI3
aI5
aI5
aI5
aI0
aI5
aI3
aI3
aI5
aI4
aI5
aI3
aI4
aI3
aI3
aI5
aI5
aI5
aI3
aI2
aI3
aI2
aI4
aI4
aI4
aI3
aI5
aI4
aI4
aI3
aI4
aI4
aI4
aI1
aI3
aI2
aI4
aI3
aI4
aI5
aI4
aI5
aI4
aI5
aI4
aI2
aI2
aI1
aI4
aI0
aI1
aI1
aI1
aI3
aI2
aI3
aI4
aI0
aI0
aI4
aI5
aI5
aI3
aI5
aI4
aI5
aI4
aI5
aI3
aI5
aI2
aI5
aI5
aI5
aI3
aI3
aI3
aI4
aI3
aI3
aI2
aI5
aI5
aI3
aI5
aI3
aI2
aI3
aI1
aI1
aI4
aI5
aI1
aI1
aI4
aI2
aI5
aI5
aI4
aI2
aI3
aI5
aI3
aI3
aI5
aI3
aI4
aI3
aI5
aI5
aI3
aI4
aI5
aI1
aI3
aI2
aI4
aI3
aI3
aI2
aI3
aI0
aI4
aI3
aI4
aI3
aI3
aI3
aI0
aI2
aI1
aI4
aI2
aI5
aI3
aI4
aI4
aI5
aI5
aI5
aI2
aI5
aI5
aI5
aI5
aI5
aI3
aI4
aI4
aI4
aI3
aI3
aI5
aI3
aI3
aI3
aI5
aI4
aI2
aI0
aI1
aI5
aI3
aI4
aI0
aI2
aI0
aI5
aI3
aI1
aI0
aI3
aI5
aI0
aI5
aI2
aI5
aI5
aI1
aI5
aI2
aI4
aI2
aI5
aI2
aI3
aI1
aI4
aI4
aI1
aI1
aI2
aI4
aI5
aI1
aI4
aI3
aI4
aI2
aI1
aI0
aI0
aI0
aI5
aI4
aI1
aI5
aI5
aI5
aI5
aI3
aI4
aI3
aI5
aI5
aI0
aI0
aI0
aI4
aI4
aI4
aI2
aI3
aI5
aI5
aI3
aI1
aI3
aI5
aI5
aI5
aI4
aI0
aI2
aI2
aI5
aI4
aI5
aI3
aI0
aI2
aI5
aI5
aI5
aI2
aI3
aI4
aI4
aI3
aI4
aI3
aI1
aI4
aI5
aI4
aI4
aI2
aI0
aI4
aI4
aI4
aI0
aI3
aI5
aI5
aI5
aI3
aI5
aI2
aI4
aI4
aI3
aI2
aI0
aI0
aI5
aI4
aI5
aI3
aI0
aI3
aI4
aI3
aI5
aI5
aI5
aI3
aI4
aI4
aI3
aI2
aI1
aI2
aI5
aI5
aI5
aI3
aI1
aI5
aI0
aI1
aI3
aI5
aI5
aI4
aI3
aI0
aI5
aI4
aI0
aI4
aI1
aI4
aI3
aI0
aI1
aI5
aI2
aI4
aI4
aI5
aI2
aI4
aI5
aI4
aI2
aI0
aI1
aI3
aI3
aI5
aI5
aI5
aI3
aI3
aI5
aI5
aI4
aI5
aI4
aI5
aI5
aI2
aI2
aI3
aI4
aI0
aI3
aI0
aI5
aI5
aI3
aI1
aI1
aI4
aI5
aI3
aI3
aI5
aI5
aI5
aI3
aI0
aI0
aI5
aI5
aI3
aI0
aI0
aI2
aI0
aI0
aI3
aI0
aI1
aI5
aI5
aI5
aI3
aI4
aI3
aI0
aI0
aI0
aI3
aI3
aI5
aI5
aI4
aI3
aI3
aI5
aI4
aI5
aI4
aI4
aI2
aI4
aI4
aI4
aI3
aI4
aI5
aI0
aI0
aI0
aI3
aI5
aI5
aI5
aI3
aI5
aI4
aI5
aI5
aI5
aI5
aI4
aI5
aI5
aI5
aI5
aI5
aI3
aI3
aI4
aI5
aI1
aI0
aI3
aI5
aI4
aI3
aI3
aI4
aI5
aI4
aI1
aI3
aI1
aI5
aI4
aI4
aI3
aI0
aI3
aI0
aI3
aI4
aI2
aI3
aI5
aI5
aI5
aI5
aI4
aI5
aI5
aI5
aI0
aI3
aI5
aI5
aI5
aI2
aI5
aI4
aI5
aI4
aI4
aI4
aI5
aI4
aI2
aI0
aI0
aI5
aI5
aI1
aI1
aI1
aI5
aI5
aI4
aI2
aI0
aI5
aI4
aI0
aI0
aI0
aI5
aI5
aI3
aI4
aI5
aI5
aI2
aI0
aI2
aI5
aI4
aI4
aI4
aI1
aI5
aI4
aI2
aI3
aI5
aI5
aI5
aI2
aI5
aI4
aI5
aI1
aI1
aI3
aI5
aI5
aI2
aI2
aI3
aI4
aI0
aI2
aI5
aI4
aI5
aI2
aI5
aI5
aI2
aI0
aI4
aI4
aI3
aI4
aI5
aI5
aI3
aI2
aI4
aI3
aI5
aI3
aI4
aI4
aI4
aI5
aI2
aI0
aI1
aI5
aI5
aI5
aI3
aI4
aI5
aI3
aI2
aI2
aI2
aI5
aI4
aI5
aI2
aI4
aI5
aI0
aI1
aI3
aI5
aI2
asI2014
(lp10
I3
aI2
aI3
aI3
aI5
aI5
aI4
aI3
aI3
aI5
aI5
aI3
aI3
aI4
aI1
aI5
aI2
aI2
aI1
aI3
aI3
aI3
aI4
aI5
aI5
aI5
aI3
aI3
aI0
aI3
aI2
aI5
aI3
aI5
aI0
aI2
aI1
aI3
aI4
aI3
aI0
aI0
aI0
aI2
aI0
aI0
aI1
aI2
aI3
aI3
aI3
aI1
aI4
aI3
aI0
aI0
aI1
aI1
aI0
aI5
aI2
aI4
aI1
aI4
aI0
aI1
aI0
aI4
aI5
aI5
aI1
aI5
aI4
aI3
aI3
aI4
aI3
aI4
aI0
aI5
aI5
aI3
aI2
aI5
aI3
aI5
aI5
aI5
aI4
aI4
aI0
aI1
aI0
aI0
aI0
aI3
aI4
aI3
aI5
aI5
aI0
aI0
aI2
aI0
aI0
aI2
aI2
aI0
aI2
aI0
aI1
aI2
aI5
aI2
aI3
aI2
aI2
aI3
aI3
aI3
aI1
aI1
aI0
aI2
aI0
aI1
aI0
aI0
aI1
aI0
aI0
aI0
aI0
aI1
aI5
aI3
aI4
aI1
aI3
aI5
aI0
aI4
aI4
aI3
aI4
aI2
aI5
aI3
aI2
aI1
aI2
aI1
aI4
aI5
aI2
aI0
aI0
aI4
aI3
aI2
aI2
aI0
aI4
aI1
aI4
aI0
aI3
aI1
aI4
aI3
aI4
aI3
aI5
aI4
aI3
aI2
aI0
aI0
aI3
aI5
aI5
aI4
aI2
aI3
aI0
aI0
aI5
aI4
aI4
aI5
aI2
aI4
aI3
aI2
aI3
aI5
aI5
aI5
aI2
aI3
aI5
aI3
aI3
aI5
aI1
aI3
aI5
aI3
aI2
aI4
aI4
aI2
aI5
aI3
aI5
aI0
aI2
aI0
aI0
aI0
aI5
aI1
aI3
aI4
aI3
aI3
aI2
aI0
aI3
aI1
aI0
aI5
aI0
aI3
aI3
aI3
aI3
aI3
aI3
aI5
aI2
aI4
aI5
aI5
aI1
aI1
aI3
aI3
aI3
aI1
aI5
aI0
aI0
aI5
aI5
aI3
aI4
aI2
aI5
aI2
aI4
aI2
aI0
aI0
aI1
aI0
aI3
aI5
aI4
aI0
aI4
aI0
aI2
aI3
aI3
aI3
aI5
aI3
aI5
aI4
aI3
aI2
aI3
aI4
aI5
aI4
aI5
aI2
aI1
aI1
aI4
aI5
aI5
aI0
aI3
aI2
aI0
aI0
aI1
aI2
aI2
aI0
aI0
aI2
aI5
aI4
aI2
aI3
aI2
aI0
aI3
aI4
aI3
aI3
aI2
aI0
aI5
aI5
aI4
aI3
aI3
aI2
aI4
aI4
aI0
aI0
aI3
aI3
aI0
aI4
aI3
aI5
aI4
aI3
aI4
aI4
aI4
aI3
aI4
aI5
aI3
aI5
aI4
aI3
aI1
aI4
aI1
aI2
aI2
aI4
aI3
aI4
aI2
aI5
aI4
aI1
aI5
aI1
aI5
aI1
aI5
aI5
aI1
aI5
aI3
aI4
aI4
aI3
aI5
aI5
aI3
aI1
aI1
aI1
aI2
aI1
aI1
aI0
aI4
aI2
aI4
aI5
aI4
aI5
aI4
aI5
aI5
aI5
aI4
aI2
aI5
aI4
aI5
aI5
aI3
aI3
aI4
aI3
aI5
aI1
aI5
aI3
aI5
aI4
aI0
aI3
aI1
aI0
aI2
aI2
aI4
aI5
aI4
aI4
aI4
aI3
aI2
aI5
aI5
aI1
aI5
aI0
aI1
aI3
aI0
aI2
aI2
aI3
aI3
aI3
aI2
aI3
aI3
aI0
aI0
aI3
aI2
aI4
aI2
aI2
aI2
aI2
aI3
aI4
aI4
aI1
aI2
aI3
aI5
aI4
aI4
aI4
aI0
aI0
aI0
aI1
aI1
aI2
aI3
aI4
aI5
aI0
aI1
aI3
aI4
aI3
aI3
aI4
aI0
aI1
aI3
aI0
aI3
aI4
aI5
aI2
aI4
aI3
aI5
aI5
aI0
aI4
aI5
aI2
aI1
aI3
aI2
aI5
aI2
aI5
aI5
aI0
aI4
aI3
aI2
aI0
aI0
aI3
aI4
aI1
aI2
aI0
aI4
aI3
aI3
aI3
aI0
aI2
aI3
aI5
aI0
aI2
aI2
aI2
aI0
aI1
aI0
aI0
aI0
aI2
aI1
aI2
aI0
aI3
aI3
aI5
aI5
aI3
aI4
aI4
aI5
aI4
aI0
aI4
aI4
aI2
aI1
aI0
aI4
aI1
aI0
aI1
aI3
aI2
aI4
aI1
aI1
aI4
aI0
aI0
aI0
aI4
aI0
aI1
aI5
aI2
aI5
aI4
aI4
aI0
aI0
aI3
aI0
aI1
aI2
aI4
aI4
aI5
aI1
aI1
aI1
aI2
aI5
aI4
aI3
aI3
aI5
aI2
aI5
aI2
aI5
aI5
aI5
aI3
aI2
aI3
aI3
aI1
aI4
aI2
aI2
aI1
aI2
aI3
aI0
aI0
aI1
aI3
aI4
aI0
aI1
aI0
aI2
aI2
aI3
aI5
aI3
aI4
aI4
aI2
aI0
aI1
aI3
aI0
aI5
aI3
aI0
aI1
aI1
aI0
aI3
aI0
aI4
aI3
aI3
aI3
aI2
aI0
aI4
aI5
aI3
aI1
aI3
aI0
aI2
aI1
aI5
aI3
aI0
aI0
aI4
aI3
aI3
aI3
aI4
aI3
aI4
aI4
aI2
aI4
aI0
aI0
aI2
aI3
aI2
aI0
aI1
aI1
aI3
aI0
aI5
aI2
aI2
aI2
aI4
aI3
aI2
aI5
aI4
aI5
aI3
aI2
aI1
aI3
aI1
aI4
aI4
aI3
aI4
aI5
aI0
aI3
aI4
aI1
aI2
aI3
aI3
aI1
aI0
aI1
aI5
aI0
aI3
aI2
aI1
aI2
aI0
aI3
aI5
aI1
aI0
aI4
aI0
aI0
aI3
aI2
aI1
aI5
aI4
aI5
aI5
aI3
aI4
aI3
aI5
aI0
aI5
aI3
aI5
aI4
aI3
aI4
aI2
aI2
aI3
aI3
aI5
aI0
aI3
aI0
aI3
aI2
aI3
aI3
aI5
aI4
aI0
aI5
aI2
aI1
aI4
aI3
aI3
aI4
aI5
aI5
aI0
aI5
aI1
aI0
aI3
aI0
aI4
aI4
aI4
aI3
aI5
aI3
aI5
aI3
aI5
aI4
aI5
aI5
aI4
aI3
aI3
aI3
aI3
aI3
aI2
aI2
aI5
aI5
aI2
aI4
aI3
aI3
aI5
aI4
aI3
aI5
aI4
aI2
aI0
aI0
aI0
aI1
aI4
aI1
aI4
aI0
aI1
aI0
aI0
aI0
aI0
aI1
aI0
aI1
aI2
aI4
aI3
aI2
aI4
aI1
aI4
aI1
aI3
aI3
aI5
aI3
aI0
aI3
aI2
aI2
aI2
aI0
aI3
aI4
aI3
aI0
aI0
aI1
aI3
aI3
aI3
aI5
aI3
aI1
aI5
aI0
aI0
aI1
aI4
aI1
aI2
aI5
aI4
aI3
aI1
aI3
aI3
aI4
aI3
aI5
aI5
aI2
aI2
aI4
aI2
aI3
aI4
aI4
aI3
aI2
aI4
aI3
aI5
aI4
aI0
aI4
aI1
aI3
aI3
aI2
aI1
aI4
aI1
aI5
aI5
aI5
aI2
aI3
aI3
aI3
aI5
aI2
aI0
aI3
aI0
aI0
aI2
aI0
aI0
aI0
aI0
aI1
aI0
aI1
aI0
aI0
aI2
aI3
aI2
aI2
aI4
aI5
aI1
aI4
aI5
aI3
aI2
aI4
aI3
aI3
aI0
aI0
aI2
aI4
aI4
aI3
aI3
aI4
aI2
aI5
aI3
aI3
aI0
aI3
aI5
aI0
aI1
aI2
aI3
aI5
aI0
aI0
aI0
aI1
aI1
aI0
aI3
aI5
aI0
aI5
aI0
aI0
aI1
aI4
aI0
aI1
aI4
aI4
aI3
aI0
aI3
aI5
aI3
aI3
aI2
aI3
aI3
aI3
aI5
aI3
aI5
aI4
aI3
aI4
aI5
aI2
aI5
aI4
aI2
aI3
aI2
aI4
aI4
aI5
aI1
aI0
aI5
aI4
aI0
aI4
aI0
aI4
aI0
aI2
aI2
aI2
aI1
aI2
aI2
aI0
aI3
aI3
aI3
aI0
aI1
aI3
aI2
aI1
aI5
aI5
aI4
aI1
aI5
aI3
aI0
aI2
aI0
aI0
aI2
aI4
aI3
aI2
aI4
aI3
aI5
aI5
aI1
aI0
aI0
aI0
aI0
aI1
aI0
aI0
aI1
aI4
aI4
aI3
aI5
aI3
aI0
aI3
aI5
aI2
aI3
aI4
aI4
aI5
aI2
aI5
aI1
aI5
aI0
aI3
aI5
aI4
aI4
aI3
aI4
aI4
aI5
aI5
aI4
aI3
aI4
aI4
aI1
aI3
aI1
aI0
aI1
aI0
aI2
aI1
aI5
aI3
aI3
aI0
aI2
aI2
aI2
aI3
aI4
aI4
aI1
aI3
aI2
aI4
aI5
aI5
aI4
aI5
aI5
aI5
aI4
aI5
aI1
aI2
aI1
aI1
aI3
aI3
aI0
aI4
aI0
aI3
aI3
aI0
aI0
aI1
aI5
aI3
aI4
aI4
aI5
aI3
aI5
aI5
aI1
aI5
aI4
aI1
aI4
aI3
aI4
aI2
aI3
aI4
aI4
aI2
aI4
aI3
aI3
aI4
aI4
aI4
aI1
aI1
aI5
aI5
aI5
aI3
aI5
aI5
aI5
aI1
aI3
aI5
aI5
aI4
aI1
aI0
aI4
aI3
aI1
aI3
aI3
aI5
aI4
aI3
aI2
aI3
aI5
aI3
aI1
aI5
aI5
aI4
aI5
aI5
aI5
aI5
aI1
aI1
aI5
aI1
aI2
aI1
aI1
aI0
aI4
aI4
aI1
aI3
aI3
aI4
aI3
aI4
aI5
aI4
aI4
aI3
aI5
aI4
aI5
aI3
aI1
aI5
aI1
aI0
aI0
aI4
aI3
aI1
aI3
aI0
aI4
aI4
aI1
aI5
aI3
aI3
aI4
aI3
aI0
aI4
aI5
aI4
aI2
aI0
aI5
aI1
aI2
aI0
aI2
aI3
aI0
aI5
aI5
aI0
aI5
aI4
aI4
aI5
aI4
aI3
aI3
aI2
aI4
aI2
aI5
aI3
aI0
aI1
aI2
aI0
aI3
aI5
aI5
aI4
aI3
aI2
aI2
aI0
aI1
aI1
aI0
aI5
aI5
aI2
aI5
aI4
aI3
aI3
aI3
aI2
aI3
aI2
aI0
aI2
aI1
aI0
aI0
aI2
aI1
aI0
aI3
aI5
aI4
aI4
aI5
aI5
aI5
aI3
aI5
aI3
aI5
aI0
aI3
aI4
aI5
aI3
aI4
aI3
aI3
aI1
aI5
aI3
aI3
aI3
aI2
aI3
aI5
aI0
aI1
aI2
aI0
aI2
aI5
aI2
aI2
aI5
aI4
aI2
aI4
aI5
aI3
aI3
aI5
aI5
aI3
aI0
aI4
aI3
aI0
aI0
aI0
aI0
aI1
aI1
aI0
aI0
aI4
aI0
aI1
aI0
aI0
aI0
aI1
aI1
aI1
aI0
aI0
aI0
aI0
aI3
aI1
aI0
aI1
aI2
aI5
aI5
aI4
aI5
aI4
aI3
aI5
aI3
aI5
aI2
aI2
aI2
aI3
aI4
aI4
aI3
aI3
aI0
aI2
aI2
aI4
aI3
aI3
aI0
aI4
aI5
aI4
aI2
aI1
aI5
aI4
aI3
aI3
aI4
aI2
aI5
aI4
aI3
aI5
aI5
aI5
aI4
aI5
aI3
aI4
aI5
aI5
aI4
aI3
aI5
aI2
aI2
aI4
aI4
aI3
aI4
aI5
aI3
aI2
aI5
aI1
aI1
aI5
aI3
aI4
aI5
aI5
aI5
aI4
aI0
aI5
aI2
aI3
aI4
aI1
aI3
aI3
aI5
aI4
aI0
aI2
aI1
aI1
aI3
aI0
aI5
aI5
aI2
aI1
aI5
aI4
aI4
aI3
aI1
aI3
aI3
aI4
aI2
aI1
aI1
aI5
aI3
aI2
aI3
aI3
aI2
aI3
aI3
aI1
aI1
aI1
aI5
aI5
aI4
aI4
aI5
aI4
aI1
aI0
aI1
aI4
aI0
aI5
aI3
aI5
aI5
aI5
aI3
aI3
aI4
aI3
aI4
aI4
aI5
aI0
aI5
aI3
aI0
aI4
aI5
aI1
aI2
aI5
aI3
aI1
aI3
aI4
aI4
aI3
aI4
aI5
aI5
aI4
aI5
aI5
aI5
aI3
aI0
aI0
aI1
aI5
aI1
aI4
aI0
aI5
aI4
aI2
aI4
aI3
aI4
aI0
aI0
aI0
aI0
aI5
aI5
aI5
aI0
aI5
aI4
aI5
aI2
aI4
aI2
aI0
aI0
aI4
aI3
aI4
aI2
aI3
aI1
aI5
aI1
aI5
aI5
aI2
aI1
aI0
aI2
aI3
aI0
aI4
aI0
aI0
aI0
aI3
aI2
aI4
aI4
aI0
aI1
aI3
aI1
aI3
aI1
aI0
aI2
aI2
aI2
aI4
aI0
aI3
aI0
aI0
aI1
aI3
aI4
aI3
aI1
aI3
aI0
aI3
aI5
aI0
aI0
aI0
aI4
aI0
aI5
aI3
aI5
aI2
aI3
aI2
aI4
aI3
aI1
aI0
aI0
aI4
aI2
aI0
aI1
aI0
aI0
aI2
aI0
aI1
aI1
aI2
aI0
aI0
aI0
aI1
aI5
aI2
aI1
aI3
aI0
aI2
aI5
aI4
aI3
aI3
aI5
aI4
aI3
aI4
aI5
aI4
aI4
aI3
aI3
aI5
aI5
aI4
aI4
aI0
aI0
aI3
aI1
aI2
aI4
aI0
aI0
aI0
aI2
aI0
aI0
aI3
aI5
aI4
aI3
aI3
aI4
aI2
aI2
aI0
aI1
aI4
aI2
aI5
aI5
aI3
aI4
aI3
aI0
aI2
aI5
aI5
aI5
aI5
aI0
aI4
aI3
aI3
aI4
aI0
aI0
aI0
aI0
aI0
aI3
aI1
aI0
aI0
aI0
aI2
aI0
aI3
aI0
aI0
aI0
aI1
aI0
aI3
aI0
aI3
aI0
aI4
aI5
aI5
aI5
aI3
aI2
aI5
aI5
aI5
aI4
aI2
aI5
aI0
aI0
aI1
aI5
aI2
aI0
aI2
aI2
aI5
aI4
aI0
aI3
aI0
aI0
aI3
aI1
aI2
aI3
aI2
aI4
aI2
aI2
aI3
aI4
aI4
aI5
aI4
aI3
aI2
aI5
aI2
aI2
aI1
aI2
aI2
aI2
aI1
aI0
aI5
aI4
aI2
aI0
aI3
aI0
aI1
aI0
aI1
aI2
aI2
aI2
aI5
aI2
aI4
aI1
aI5
aI4
aI3
aI3
aI0
aI3
aI1
aI4
aI2
aI5
aI4
aI3
aI3
aI1
aI2
aI4
aI3
aI3
aI0
aI4
aI1
aI3
aI4
aI4
aI1
aI3
aI3
aI5
aI4
aI3
aI3
aI4
aI3
aI4
aI5
aI1
aI1
aI3
aI4
aI5
aI3
aI4
aI5
aI5
aI4
aI3
aI0
aI0
aI4
aI3
aI4
aI2
aI2
aI3
aI2
aI0
aI0
aI1
aI0
aI2
aI4
aI0
aI4
aI1
aI0
aI5
aI3
aI1
aI3
aI3
aI0
aI0
aI3
aI1
aI3
aI2
aI3
aI0
aI1
aI2
aI2
aI4
aI3
aI5
aI5
aI0
aI5
aI4
aI5
aI3
aI0
aI1
aI2
aI3
aI5
aI5
aI3
aI3
aI3
aI3
aI1
aI3
aI4
aI2
aI3
aI4
aI0
aI4
aI3
aI0
aI2
aI5
aI2
aI1
aI5
aI4
aI2
aI5
aI4
aI2
aI5
aI2
aI2
aI2
aI1
aI3
aI1
aI5
aI2
aI4
aI4
aI1
aI2
aI5
aI5
aI2
aI5
aI5
aI0
aI4
aI3
aI3
aI3
aI1
aI5
aI0
aI0
aI0
aI0
aI2
aI0
aI3
aI0
aI0
aI0
aI1
aI0
aI5
aI2
aI5
aI2
aI4
aI5
aI3
aI5
aI1
aI3
aI3
aI3
aI2
aI2
aI5
aI5
aI4
aI1
aI5
aI4
aI4
aI1
aI4
aI4
aI3
aI4
aI0
aI1
aI2
aI0
aI2
aI2
aI3
aI3
aI3
aI3
aI3
aI3
aI0
aI3
aI4
aI3
aI5
aI4
aI3
aI4
aI4
aI5
aI4
aI1
aI5
aI4
aI4
aI3
aI2
aI4
aI3
aI4
aI5
aI3
aI0
aI5
aI3
aI5
aI3
aI3
aI3
aI4
aI5
aI4
aI3
aI2
aI3
aI4
aI0
aI0
aI2
aI0
aI0
aI0
aI0
aI3
aI4
aI3
aI0
aI0
aI0
aI0
aI4
aI2
aI0
aI4
aI0
aI0
aI0
aI0
aI3
aI1
aI3
aI0
aI0
aI0
aI1
aI1
aI0
aI1
aI5
aI4
aI3
aI4
aI0
aI3
aI4
aI3
aI4
aI3
aI0
aI4
aI1
aI4
aI3
aI1
aI3
aI4
aI5
aI5
aI4
aI3
aI2
aI3
aI3
aI0
aI0
aI0
aI2
aI2
aI5
aI0
aI3
aI0
aI0
aI0
aI0
aI0
aI0
aI1
aI0
aI5
aI5
aI4
aI5
aI4
aI4
aI5
aI5
aI3
aI0
aI0
aI5
aI3
aI5
aI5
aI5
aI5
aI2
aI5
aI4
aI3
aI3
aI3
aI0
aI5
aI2
aI2
aI4
aI5
aI4
aI4
aI2
aI0
aI3
aI5
aI1
aI2
aI2
aI4
aI2
aI4
aI5
aI1
aI4
aI4
aI2
aI5
aI4
aI2
aI4
aI3
aI5
aI4
aI3
aI5
aI4
aI2
aI0
aI3
aI4
aI3
aI1
aI1
aI2
aI5
aI3
aI5
aI3
aI5
aI4
aI0
aI3
aI3
aI5
aI4
aI5
aI4
aI4
aI5
aI1
aI3
aI4
aI3
aI2
aI4
aI3
aI1
aI3
aI4
aI2
aI4
aI2
aI3
aI5
aI1
aI3
aI0
aI3
aI2
aI3
aI4
aI2
aI2
aI2
aI5
aI2
aI1
aI0
aI1
aI5
aI0
aI5
aI3
aI5
aI0
aI4
aI3
aI3
aI3
aI5
aI5
aI1
aI0
aI5
aI3
aI3
aI4
aI0
aI0
aI4
aI2
aI2
aI3
aI4
aI3
aI3
aI5
aI5
aI2
aI3
aI3
aI5
aI1
aI4
aI5
aI3
aI3
aI2
aI0
aI2
aI2
aI2
aI0
aI0
aI0
aI3
aI2
aI3
aI2
aI2
aI4
aI4
aI0
aI0
aI2
aI1
aI0
aI0
aI0
aI0
aI1
aI0
aI3
aI2
aI4
aI0
aI1
aI1
aI5
aI4
aI4
aI1
aI0
aI4
aI0
aI2
aI2
aI3
aI5
aI1
aI2
aI1
aI2
aI0
aI0
aI4
aI3
aI2
aI3
aI3
aI3
aI1
aI5
aI3
aI3
aI3
aI1
aI4
aI2
aI2
aI4
aI4
aI5
aI5
aI3
aI4
aI5
aI4
aI1
aI2
aI3
aI5
aI4
aI5
aI5
aI3
aI3
aI2
aI1
aI4
aI5
aI5
aI3
aI3
aI3
aI2
aI2
aI5
aI4
aI4
aI0
aI4
aI4
aI2
aI4
aI3
aI5
aI5
aI5
aI4
aI3
aI3
aI4
aI2
aI2
aI0
aI2
aI2
aI3
aI0
aI3
aI0
aI2
aI2
aI5
aI0
aI3
aI4
aI3
aI5
aI4
aI3
aI3
aI2
aI3
aI5
aI2
aI3
aI3
aI5
aI5
aI4
aI2
aI5
aI5
aI3
aI1
aI1
aI5
aI4
aI5
aI4
aI5
aI2
aI4
aI5
aI4
aI1
aI0
aI1
aI0
aI1
aI0
aI1
aI1
aI0
aI4
aI4
aI1
aI3
aI4
aI4
aI5
aI4
aI0
aI2
aI1
aI0
aI1
aI4
aI3
aI3
aI3
aI5
aI0
aI0
aI5
aI3
aI4
aI2
aI0
aI0
aI1
aI3
aI0
aI0
aI0
aI1
aI0
aI0
aI2
aI3
aI1
aI1
aI2
aI0
aI1
aI1
aI0
aI1
aI2
aI1
aI0
aI4
aI4
aI4
aI4
aI4
aI4
aI0
aI1
aI1
aI0
aI4
aI1
aI1
aI4
aI1
aI2
aI2
aI1
aI1
aI4
aI3
aI4
aI5
aI3
aI5
aI5
aI4
aI1
aI3
aI0
aI0
aI5
aI5
aI4
aI3
aI2
aI1
aI4
aI4
aI0
aI5
aI4
aI4
aI4
aI2
aI2
aI5
aI3
aI5
aI5
aI5
aI1
aI0
aI1
aI0
aI3
aI4
aI1
aI0
aI0
aI2
aI0
aI0
aI2
aI3
aI2
aI3
aI0
aI4
aI4
aI5
aI3
aI4
aI5
aI4
aI5
aI4
aI5
aI5
aI5
aI4
aI5
aI2
aI3
aI3
aI5
aI5
aI5
aI4
aI2
aI3
aI5
aI2
aI0
aI3
aI0
aI4
aI3
aI4
aI5
aI3
aI3
aI4
aI1
aI1
aI2
aI3
aI0
aI4
aI3
aI2
aI5
aI5
aI5
aI2
aI5
aI3
aI5
aI3
aI2
aI2
aI5
aI3
aI4
aI3
aI5
aI5
aI3
aI3
aI1
aI4
aI1
aI3
aI1
aI0
aI1
aI0
aI0
aI1
aI0
aI0
aI5
aI2
aI2
aI4
aI5
aI4
aI0
aI2
aI5
aI2
aI3
aI3
aI4
aI3
aI2
aI3
aI2
aI4
aI5
aI1
aI2
aI2
aI1
aI5
aI4
aI0
aI1
aI2
aI0
aI3
aI5
aI5
aI4
aI3
aI5
aI3
aI5
aI5
aI0
aI3
aI5
aI4
aI0
aI0
aI5
aI5
aI3
aI5
aI5
aI4
aI1
aI2
aI0
aI1
aI0
aI1
aI3
aI0
aI1
aI1
aI0
aI2
aI0
aI3
aI0
aI1
aI3
aI0
aI0
aI5
aI4
aI0
aI4
aI2
aI5
aI5
aI5
aI2
aI4
aI3
aI4
aI4
aI0
aI4
aI3
aI0
aI0
aI5
aI0
aI5
aI0
aI5
aI2
aI5
aI0
aI0
aI5
aI0
aI3
aI4
aI5
aI5
aI0
aI0
aI1
aI5
aI3
aI4
aI3
aI3
aI0
aI0
aI2
aI4
aI4
aI2
aI4
aI4
aI1
aI3
aI0
aI1
aI3
aI2
aI4
aI1
aI3
aI0
aI5
aI3
aI4
aI4
aI5
aI5
aI4
aI1
aI5
aI4
aI5
aI5
aI4
aI3
aI5
aI4
aI4
aI5
aI2
aI5
aI4
aI3
aI0
aI2
aI5
aI3
aI4
aI1
aI2
aI5
aI4
aI5
aI1
aI0
aI0
aI1
aI4
aI2
aI2
aI1
aI3
aI5
aI1
aI1
aI5
aI5
aI5
aI5
aI5
aI4
aI3
aI4
aI4
aI5
aI4
aI4
aI4
aI1
aI5
aI5
aI3
aI0
aI3
aI4
aI3
aI0
aI3
aI0
aI1
aI0
aI0
aI1
aI2
aI1
aI0
aI2
aI2
aI5
aI5
aI4
aI5
aI5
aI3
aI3
aI4
aI3
aI5
aI2
aI3
aI2
aI0
aI3
aI3
aI4
aI4
aI2
aI2
aI4
aI0
aI0
aI2
aI0
aI4
aI0
aI3
aI4
aI4
aI5
aI2
aI5
aI5
aI5
aI2
aI5
aI5
aI5
aI5
aI5
aI4
aI5
aI4
aI5
aI4
aI3
aI5
aI5
aI2
aI2
aI4
aI3
aI5
aI5
aI1
aI3
aI5
aI4
aI5
aI4
aI4
aI4
aI2
aI3
aI4
aI1
aI0
aI2
aI0
aI0
aI0
aI0
aI3
aI2
aI0
aI0
aI3
aI0
aI0
aI4
aI2
aI1
aI0
aI2
aI1
aI2
aI1
aI1
aI0
aI0
aI0
aI0
aI3
aI0
aI4
aI1
aI1
aI5
aI1
aI2
aI3
aI1
aI3
aI0
aI4
aI0
aI0
aI0
aI1
aI3
aI2
aI0
aI3
aI0
aI2
aI2
aI0
aI0
aI1
aI4
aI5
aI1
aI1
aI4
aI4
aI0
aI3
aI0
aI0
aI0
aI1
aI4
aI3
aI0
aI0
aI0
aI5
aI2
aI3
aI0
aI1
aI3
aI1
aI4
aI4
aI1
aI2
aI1
aI0
aI0
aI4
aI0
aI2
aI2
aI0
aI0
aI1
aI0
aI1
aI0
aI0
aI0
aI0
aI1
aI2
aI4
aI1
aI1
aI1
aI2
aI4
aI1
aI4
aI2
aI3
aI4
aI5
aI4
aI5
aI4
aI1
aI3
aI1
aI2
aI1
aI5
aI3
aI2
aI1
aI3
aI0
aI0
aI2
aI1
aI3
aI4
aI4
aI2
aI4
aI2
aI5
aI4
aI3
aI5
aI2
aI3
aI2
aI4
aI3
aI1
aI1
aI1
aI5
aI4
aI5
aI5
aI5
aI5
aI5
aI5
aI3
aI1
aI0
aI1
aI0
aI3
aI1
aI0
aI2
aI4
aI1
aI0
aI3
aI3
aI3
aI1
aI2
aI1
aI1
aI1
aI0
aI3
aI0
aI0
aI1
aI1
aI2
aI0
aI0
aI0
aI0
aI0
aI1
aI0
aI4
aI1
aI1
aI0
aI0
aI0
aI0
aI0
aI0
aI2
aI0
aI0
aI0
aI3
aI3
aI0
aI0
aI0
aI1
aI0
aI4
aI3
aI1
aI3
aI0
aI1
aI1
aI1
aI0
aI2
aI0
aI4
aI0
aI3
aI0
aI5
aI0
aI0
aI1
aI0
aI4
aI1
aI0
aI5
aI1
aI2
aI1
aI0
aI2
aI3
aI3
aI4
aI5
aI5
aI2
aI5
aI2
aI4
aI5
aI5
aI3
aI4
aI4
aI3
aI5
aI5
aI3
aI4
aI5
aI5
aI5
aI3
aI2
aI2
aI4
aI4
aI5
aI5
aI2
aI4
aI5
aI4
aI3
aI1
aI3
aI5
aI3
aI3
aI4
aI4
aI2
aI1
aI2
aI0
aI3
aI4
aI3
aI4
aI3
aI3
aI3
aI4
aI2
aI1
aI4
aI4
aI1
aI5
aI5
aI3
aI0
aI1
aI1
aI1
aI0
aI4
aI0
aI1
aI2
aI0
aI2
aI1
aI3
aI3
aI0
aI0
aI0
aI0
aI1
aI0
aI3
aI5
aI1
aI1
aI4
aI0
aI3
aI3
aI5
aI5
aI5
aI4
aI4
aI5
aI4
aI3
aI0
aI2
aI2
aI5
aI5
aI3
aI4
aI4
aI2
aI5
aI4
aI5
aI3
aI4
aI5
aI4
aI2
aI2
aI1
aI0
aI3
aI0
aI4
aI1
aI1
aI3
aI4
aI5
aI4
aI1
aI5
aI2
aI2
aI4
aI4
aI3
aI5
aI5
aI5
aI1
aI5
aI0
aI3
aI1
aI4
aI5
aI1
aI1
aI5
aI4
aI4
aI3
aI4
aI5
aI3
aI2
aI4
aI2
aI3
aI5
aI1
aI5
aI2
aI3
aI5
aI1
aI4
aI0
aI5
aI0
aI0
aI4
aI4
aI0
aI1
aI2
aI3
aI5
aI3
aI1
aI5
aI3
aI4
aI3
aI5
aI2
aI5
aI3
aI1
aI2
aI5
aI2
aI3
aI0
aI5
aI3
aI3
aI5
aI5
aI5
aI5
aI4
aI5
aI5
aI3
aI5
aI5
aI4
aI5
aI1
aI2
aI0
aI4
aI2
aI5
aI3
aI3
aI1
aI2
aI0
aI0
aI3
aI4
aI5
aI5
aI4
aI5
aI5
aI2
aI2
aI1
aI2
aI2
aI2
aI2
aI2
aI0
aI0
aI1
aI0
aI1
aI0
aI3
aI3
aI4
aI4
aI2
aI3
aI4
aI2
aI3
aI5
aI4
aI4
aI5
aI5
aI4
aI5
aI5
aI4
aI5
aI0
aI1
aI3
aI3
aI1
aI0
aI3
aI1
aI1
aI5
aI5
aI4
aI5
aI5
aI5
aI3
aI2
aI2
aI5
aI5
aI4
aI5
aI4
aI5
aI3
aI4
aI2
aI5
aI1
aI0
aI0
aI2
aI3
aI3
aI1
aI1
aI4
aI5
aI3
aI5
aI3
aI5
aI4
aI4
aI4
aI3
aI5
aI5
aI5
aI4
aI5
aI5
aI5
aI4
aI4
aI4
aI4
aI3
aI3
aI2
aI3
aI4
aI1
aI1
aI0
aI4
aI4
aI3
aI4
aI4
aI4
aI5
aI4
aI4
aI4
aI4
aI5
aI5
aI5
aI5
aI4
aI5
aI5
aI5
aI3
aI5
aI2
aI4
aI5
aI4
aI4
aI4
aI4
aI5
aI4
aI5
aI0
aI5
aI4
aI2
aI1
aI3
aI5
aI3
aI4
aI3
aI3
aI1
aI3
aI4
aI4
aI3
aI4
aI5
aI4
aI5
aI5
aI5
aI5
aI5
aI5
aI4
aI5
aI5
aI5
aI4
aI3
aI4
aI4
aI5
aI3
aI0
aI0
aI2
aI1
aI0
aI4
aI5
aI3
aI1
aI1
aI0
aI4
aI3
aI5
aI3
aI4
aI4
aI4
aI5
aI3
aI5
aI4
aI4
aI5
aI5
aI5
aI5
aI5
aI4
aI5
aI5
aI4
aI3
aI3
aI5
aI0
aI5
aI5
aI5
aI5
aI4
aI4
aI2
aI5
aI4
aI4
aI5
aI4
aI1
aI3
aI2
aI5
aI4
aI3
aI5
aI3
aI5
aI4
aI2
aI5
aI3
aI2
aI5
aI5
aI4
aI2
aI4
aI2
aI1
aI3
aI3
aI5
aI5
aI3
aI4
aI5
aI2
aI5
aI5
aI5
aI3
aI5
aI5
aI4
aI5
aI5
aI5
aI2
aI3
aI5
aI5
aI3
aI5
aI5
aI5
aI2
aI5
aI5
aI5
aI4
aI5
aI4
aI5
aI5
aI4
aI5
aI5
aI4
aI5
aI4
aI5
aI3
aI4
aI5
aI3
aI1
aI2
aI1
aI1
aI2
aI2
aI1
aI0
aI0
aI0
aI5
aI4
aI4
aI5
aI5
aI3
aI5
aI4
aI3
aI2
aI4
aI3
aI1
aI2
aI2
aI4
aI3
aI0
aI0
aI3
aI1
aI3
aI3
aI4
aI4
aI3
aI3
aI3
aI5
aI4
aI3
aI2
aI2
aI1
aI3
aI0
aI3
aI1
aI0
aI4
aI3
aI3
aI3
aI4
aI2
aI2
aI5
aI2
aI2
aI1
aI1
aI3
aI5
aI4
aI1
aI2
aI1
aI3
aI5
aI4
aI2
aI3
aI3
aI0
aI2
aI2
aI4
aI5
aI2
aI3
aI4
aI0
aI1
aI3
aI2
aI4
aI3
aI2
aI5
aI3
aI5
aI4
aI3
aI4
aI2
aI4
aI3
aI2
aI0
aI3
aI0
aI4
aI4
aI0
aI2
aI3
aI4
aI0
aI3
aI4
aI3
aI1
aI2
aI1
aI3
aI5
aI5
aI3
aI3
aI2
aI4
aI4
aI5
aI2
aI5
aI5
aI4
aI5
aI2
aI2
aI4
aI4
aI1
aI4
aI2
aI0
aI4
aI4
aI0
aI4
aI3
aI3
aI3
aI4
aI4
aI4
aI3
aI3
aI4
aI0
aI2
aI4
aI5
aI3
aI3
aI2
aI4
aI5
aI2
aI0
aI5
aI4
aI2
aI5
aI1
aI1
aI3
aI3
aI3
aI1
aI1
aI3
aI5
aI0
aI3
aI0
aI4
aI0
aI5
aI2
aI0
aI3
aI0
aI1
aI4
aI3
aI4
aI2
aI0
aI3
aI4
aI2
aI3
aI2
aI3
aI1
aI2
aI0
aI3
aI4
aI1
aI2
aI0
aI5
aI3
aI4
aI4
aI3
aI5
aI3
aI5
aI3
aI3
aI3
aI5
aI3
aI0
aI2
aI3
aI3
aI1
aI0
aI1
aI3
aI3
aI2
aI3
aI0
aI0
aI0
aI0
aI5
aI3
aI0
aI2
aI1
aI1
aI4
aI4
aI5
aI5
aI5
aI5
aI5
aI4
aI0
aI5
aI4
aI2
aI5
aI3
aI5
aI5
aI4
aI4
aI2
aI4
aI4
aI2
aI5
aI3
aI3
aI4
aI4
aI5
aI4
aI2
aI3
aI3
aI4
aI4
aI3
aI5
aI3
aI3
aI5
aI3
aI3
aI5
aI4
aI4
aI5
aI5
aI5
aI3
aI3
aI3
aI5
aI2
aI5
aI3
aI5
aI1
aI2
aI3
aI3
aI4
aI3
aI5
aI1
aI5
aI4
aI4
aI4
aI5
aI5
aI1
aI1
aI4
aI0
aI5
aI5
aI1
aI2
aI5
aI2
aI4
aI0
aI3
aI4
aI3
aI1
aI3
aI0
aI0
aI1
aI2
aI1
aI2
aI3
aI4
aI5
aI4
aI2
aI4
aI1
aI5
aI0
aI0
aI3
aI3
aI1
aI2
aI1
aI1
aI0
aI3
aI5
aI4
aI4
aI3
aI0
aI0
aI2
aI4
aI0
aI1
aI3
aI3
aI0
aI1
aI0
aI3
aI3
aI2
aI2
aI5
aI3
aI2
aI3
aI1
aI5
aI0
aI3
aI3
aI2
aI3
aI4
aI5
aI5
aI2
aI5
aI4
aI0
aI4
aI4
aI4
aI1
aI0
aI3
aI5
aI0
aI1
aI5
aI2
aI5
aI5
aI1
aI2
aI5
aI0
aI2
aI0
aI0
aI2
aI0
aI1
aI4
aI2
aI2
aI3
aI1
aI4
aI5
aI5
aI3
aI4
aI3
aI3
aI5
aI3
aI5
aI4
aI5
aI5
aI2
aI5
aI5
aI5
aI5
aI5
aI5
aI5
aI5
aI5
aI3
aI3
aI4
aI4
aI1
aI2
aI2
aI1
aI2
aI3
aI1
aI4
aI3
aI5
aI5
aI4
aI4
aI5
aI5
aI3
aI5
aI4
aI2
aI5
aI2
aI1
aI4
aI4
aI3
aI3
aI2
aI3
aI1
aI1
aI3
aI2
aI2
aI2
aI1
aI2
aI0
aI2
aI0
aI2
aI3
aI5
aI1
aI0
aI2
aI0
aI5
aI3
aI1
aI1
aI0
aI0
aI1
aI4
aI5
aI2
aI2
aI4
aI0
aI2
aI2
aI4
aI5
aI3
aI4
aI1
aI0
aI3
aI3
aI1
aI2
aI5
aI4
aI0
aI0
aI4
aI0
aI3
aI0
aI0
aI3
aI5
aI0
aI4
aI0
aI0
aI0
aI5
aI1
aI3
aI2
aI5
aI3
aI1
aI4
aI3
aI2
aI4
aI2
aI3
aI5
aI3
aI3
aI2
aI4
aI1
aI4
aI2
aI4
aI4
aI3
aI3
aI5
aI3
aI4
aI2
aI1
aI4
aI2
aI4
aI4
aI3
aI5
aI3
aI4
aI2
aI2
aI3
aI0
aI1
aI1
aI0
aI3
aI0
aI4
aI4
aI4
aI2
aI5
aI3
aI4
aI4
aI0
aI4
aI2
aI3
aI3
aI5
aI1
aI3
aI1
aI1
aI0
aI2
aI3
aI3
aI5
aI2
aI4
aI5
aI4
aI2
aI5
aI3
aI0
aI4
aI5
aI1
aI4
aI4
aI5
aI4
aI3
aI5
aI1
aI0
aI5
aI4
aI5
aI4
aI3
aI3
aI3
aI4
aI4
aI4
aI1
aI4
aI5
aI1
aI0
aI0
aI0
aI0
aI0
aI0
aI0
aI1
aI1
aI0
aI0
aI1
aI1
aI0
aI0
aI0
aI3
aI3
aI1
aI2
aI3
aI1
aI2
aI0
aI3
aI2
aI4
aI4
aI5
aI4
aI3
aI4
aI2
aI3
aI3
aI0
aI2
aI4
aI3
aI2
aI3
aI2
aI1
aI2
aI0
aI2
aI1
aI3
aI4
aI3
aI3
aI5
aI4
aI4
aI4
aI5
aI1
aI3
aI2
aI2
aI0
aI4
aI1
aI1
aI5
aI0
aI1
aI0
aI2
aI3
aI3
aI3
aI1
aI4
aI4
aI4
aI5
aI3
aI5
aI4
aI4
aI4
aI4
aI5
aI2
aI2
aI0
aI0
aI0
aI5
aI2
aI3
aI4
aI5
aI4
aI1
aI4
aI5
aI4
aI5
aI5
aI3
aI4
aI2
aI3
aI2
aI1
aI2
aI3
aI5
aI2
aI5
aI5
aI2
aI3
aI4
aI3
aI1
aI3
aI2
aI3
aI4
aI1
aI4
aI3
aI5
aI5
aI4
aI3
aI5
aI1
aI2
aI4
aI3
aI4
aI2
aI4
aI0
aI4
aI2
aI3
aI1
aI0
aI5
aI5
aI5
aI5
aI5
aI1
aI1
aI5
aI2
aI3
aI0
aI1
aI3
aI0
aI3
aI1
aI0
aI0
aI0
aI3
aI4
aI5
aI2
aI4
aI1
aI3
aI5
aI5
aI5
aI4
aI1
aI0
aI3
aI3
aI3
aI2
aI1
aI5
aI2
aI3
aI4
aI3
aI3
aI2
aI5
aI5
aI2
aI4
aI5
aI4
aI3
aI3
aI3
aI4
aI4
aI5
aI3
aI4
aI5
aI2
aI5
aI5
aI2
aI4
aI5
aI4
aI2
aI5
aI5
aI2
aI3
aI1
aI0
aI3
aI5
aI5
aI1
aI3
aI3
aI3
aI5
aI5
aI2
aI2
aI5
aI5
aI4
aI2
aI3
aI0
aI5
aI5
aI5
aI4
aI4
aI5
aI5
aI5
aI3
aI1
aI0
aI0
aI1
aI0
aI1
aI3
aI0
aI0
aI0
aI0
aI0
aI1
aI0
aI1
aI3
aI0
aI5
aI1
aI2
aI0
aI0
aI0
aI0
aI2
aI0
aI1
aI0
aI0
aI1
aI0
aI1
aI5
aI4
aI1
aI0
aI5
aI4
aI1
aI1
aI0
aI3
aI2
aI0
aI0
aI3
aI0
aI3
aI2
aI5
aI2
aI2
aI0
aI1
aI2
aI3
aI1
aI0
aI0
aI0
aI0
aI0
aI3
aI3
aI0
aI0
aI0
aI2
aI0
aI0
aI1
aI2
aI5
aI5
aI3
aI4
aI3
aI4
aI1
aI0
aI2
aI1
aI2
aI1
aI3
aI5
aI1
aI2
aI0
aI0
aI0
aI4
aI1
aI4
aI2
aI1
aI5
aI2
aI1
aI3
aI1
aI5
aI3
aI3
aI1
aI2
aI5
aI4
aI4
aI0
aI4
aI5
aI3
aI4
aI3
aI2
aI4
aI1
aI0
aI2
aI0
aI1
aI2
aI5
aI3
aI2
aI4
aI3
aI5
aI5
aI2
aI4
aI4
aI2
aI1
aI2
aI3
aI3
aI1
aI0
aI0
aI0
aI1
aI1
aI0
aI5
aI5
aI4
aI3
aI5
aI5
aI3
aI5
aI2
aI3
aI4
aI1
aI1
aI1
aI3
aI0
aI5
aI0
aI2
aI0
aI0
aI3
aI0
aI0
aI0
aI0
aI0
aI1
aI5
aI0
aI2
aI0
aI0
aI4
aI3
aI0
aI4
aI4
aI4
aI4
aI5
aI0
aI0
aI0
aI0
aI3
aI5
aI3
aI5
aI4
aI3
aI1
aI1
aI1
aI5
aI5
aI5
aI3
aI3
aI5
aI5
aI3
aI5
aI0
aI4
aI5
aI5
aI4
aI5
aI0
aI0
aI0
aI1
aI0
aI3
aI0
aI0
aI1
aI0
aI3
aI2
aI4
aI0
aI0
aI0
aI0
aI1
aI1
aI3
aI0
aI3
aI1
aI0
aI1
aI1
aI5
aI5
aI5
aI3
aI5
aI5
aI5
aI3
aI3
aI4
aI5
aI5
aI3
aI0
aI3
aI0
aI0
aI4
aI4
aI1
aI5
aI4
aI4
aI3
aI5
aI0
aI1
aI3
aI0
aI0
aI0
aI0
aI4
aI0
aI0
aI4
aI4
aI4
aI3
aI5
aI5
aI0
aI4
aI4
aI4
aI0
aI1
aI0
aI2
aI0
aI2
aI0
aI0
aI3
aI5
aI4
aI3
aI5
aI0
aI0
aI0
aI0
aI0
aI1
aI2
aI3
aI5
aI1
aI5
aI0
aI1
aI5
aI5
aI0
aI4
aI3
aI0
aI0
aI0
aI5
aI4
aI4
aI2
aI3
aI5
aI5
aI5
aI3
aI0
aI2
aI2
aI5
aI5
aI3
aI4
aI5
aI4
aI3
aI5
aI5
aI4
aI3
aI4
aI5
aI5
aI5
aI4
aI0
aI0
aI0
aI1
aI0
aI1
aI2
aI5
aI0
aI2
aI3
aI5
aI0
aI5
aI0
aI4
aI2
aI4
aI4
aI1
aI3
aI4
aI5
aI1
aI3
aI3
aI4
aI5
aI2
aI3
aI4
aI0
aI3
aI3
aI5
aI0
aI1
aI2
aI4
aI3
aI0
aI5
aI4
aI5
aI0
aI5
aI0
aI2
aI3
aI1
aI0
aI0
aI1
aI5
aI0
aI0
aI5
aI1
aI5
aI0
aI0
aI0
aI1
aI0
aI0
aI3
aI0
aI1
aI1
aI0
aI0
aI4
aI2
aI1
aI2
aI4
aI4
aI5
aI4
aI4
aI4
aI4
aI0
aI0
aI1
aI5
aI1
aI1
aI1
aI2
aI2
aI0
aI0
aI0
aI5
aI1
aI5
aI5
aI5
aI5
aI3
aI0
aI1
aI0
aI1
aI4
aI2
aI1
aI3
aI4
aI1
aI0
aI2
aI5
aI1
aI1
aI0
aI0
aI0
aI1
aI0
aI0
aI1
aI1
aI3
aI0
aI0
aI0
aI5
aI5
aI5
aI5
aI5
aI4
aI4
aI5
aI4
aI5
aI5
aI5
aI1
aI0
aI1
aI2
aI0
aI4
aI0
aI0
aI3
aI4
aI1
aI0
aI1
aI0
aI0
aI0
aI0
aI0
aI5
aI1
aI0
aI3
aI5
aI5
aI4
aI3
aI5
aI5
aI5
aI3
aI5
aI4
aI5
aI4
aI4
aI4
aI5
aI4
aI0
aI0
aI0
aI1
aI0
aI0
aI2
aI0
aI0
aI1
aI3
aI0
aI0
aI1
aI1
aI0
aI1
aI0
aI0
aI0
aI3
aI0
aI0
aI2
aI1
aI0
aI5
aI0
aI4
aI4
aI4
aI5
aI4
aI1
aI4
aI3
aI2
aI4
aI4
aI4
aI4
aI4
aI4
aI1
aI0
aI0
aI0
aI0
aI0
aI0
aI1
aI3
aI3
aI1
aI1
aI0
aI2
aI0
aI0
aI0
aI0
aI0
aI0
aI3
aI2
aI0
aI1
aI1
aI0
aI1
aI0
aI1
aI1
aI2
aI0
aI0
aI2
aI0
aI2
aI0
aI2
aI2
aI3
aI1
aI1
aI0
aI1
aI4
aI4
aI5
aI3
aI3
aI4
aI5
aI5
aI5
aI3
aI4
aI0
aI1
aI1
aI2
aI1
aI2
aI2
aI5
aI0
aI2
aI4
aI2
aI3
aI0
aI2
aI0
aI0
aI0
aI0
aI2
aI2
aI2
aI0
aI0
aI1
aI5
aI3
aI4
aI3
aI1
aI3
aI4
aI1
aI2
aI4
aI4
aI0
aI1
aI5
aI3
aI3
aI4
aI3
aI5
aI4
aI3
aI3
aI3
aI4
aI1
aI4
aI0
aI4
aI5
aI3
aI4
aI0
aI0
aI5
aI2
aI4
aI0
aI0
aI1
aI0
aI4
aI0
aI3
aI0
aI4
aI4
aI5
aI5
aI4
aI5
aI4
aI5
aI2
aI3
aI5
aI5
aI4
aI5
aI5
aI4
asI2015
(lp11
I1
aI3
aI4
aI3
aI4
aI1
aI4
aI2
aI4
aI3
aI4
aI2
aI5
aI5
aI3
aI0
aI0
aI1
aI2
aI1
aI0
aI3
aI2
aI3
aI5
aI3
aI3
aI4
aI3
aI1
aI4
aI4
assVYleinen kemia I
p12
g2
sVAineopintojen harjoitusty: Tietokantasovellus
p13
g2
sVLukiomatematiikan kertauskurssi
p14
g2
sVStatistinen fysiikka I
p15
g2
sVXML-metakieli
p16
g2
sVOverlay and P2P Networks
p17
g2
sVBiologinen kemia
p18
g2
sVHajautetut jrjestelmt
p19
g2
sVFysiikan mittausmenetelmt I
p20
g2
sVOrgaanisen kemian perustyt I
p21
g2
sVClojure-ohjelmointi
p22
g2
sVC-ohjelmointi
p23
g2
sVRobottiohjelmoinnin harjoitusty
p24
g2
sVSoftware Factory Project
p25
g2
sVAnalyysi II
p26
g2
sVAlgebra II
p27
g2
sVWeb-palvelinohjelmointi
p28
g2
sVNanotieteen perusteet
p29
g2
sVOhjelmointitekniikka (JavaScript)
p30
g2
sVKvanttimekaniikka I
p31
g2
sVShkmagnetismi
p32
g2
sVLinux Fundamentals
p33
g2
sVMekanikens grunder
p34
g2
sVKvanttifysiikan perusteet
p35
g2
sVElektroniikka I
p36
g2
sVOhjelmointitekniikka (Scala)
p37
g2
sVSoftware Factory Work Experience
p38
g2
sVSuhteellisuusteorian perusteet
p39
g2
sVTieteellinen laskenta II
p40
g2
sVAineopintojen harjoitusty: Ohjelmointi
p41
g2
sVSteilysuojelu
p42
g2
sVTermodynamiikka
p43
g2
sVOrgaanisten yhdisteiden NMR-spektroskopia I
p44
g2
sVFunktionaalianalyysin peruskurssi
p45
g2
sVTietokoneen toiminta
p46
g2
sVJohdatus tietojenksittelytieteeseen
p47
g2
sVTietokantojen perusteet
p48
g2
sVAineopintojen harjoitusty: Tietorakenteet ja algoritmit
p49
g2
sVTieteellinen laskenta I
p50
g2
sVVuorovaikutukset ja kappaleet
p51
g2
sVLiike ja voimat
p52
g2
sVTermodynamiikka ja dynamiikka
p53
g2
sVKandidaatintutkielma
p54
g2
sVAnalyyttinen mekaniikka
p55
g2
sVKemia elinympristss
p56
g2
sVThtitieteen perusteet
p57
g2
sVHOPS (LuK-tutkinto)
p58
g2
sVFysiikan matemaattiset menetelmt IIa
p59
g2
sVMatematiikan historia
p60
g2
sVidinkieli (tutkielmaseminaari)
p61
g2
sVMatematiikka tutuksi
p62
g2
sVVirtausilmit
p63
g2
sVAlgoritmien suunnittelu ja analyysi
p64
g2
sVJohdatus kemian opetukseen(kemia toisena opetettavana aineena)
p65
g2
sVVersionhallinta
p66
g2
sVFysiikan matemaattiset menetelmt IIb
p67
g2
sVAnalyysin harjoitusty
p68
g2
sVLukualueet
p69
g2
sVAnalyysin peruskurssi
p70
g2
sVRadiokemian perusteet
p71
g2
sVIntegroidut TVT-opinnot
p72
g2
sVOhjelmoinnin perusteet
p73
g2
sVJava-ohjelmointi
p74
g2
sVArkipivn fysiikkaa
p75
g2
sVMatemaattinen logiikka
p76
g2
sVHenkilkohtainen opintosuunnitelma (FM-HOPS)
p77
g2
sVTodennkisyyslaskenta
p78
g2
sVDistributed Systems Project
p79
g2
sVJohdatus diskreettiin matematiikkaan
p80
g2
sVElektrodynamiikka
p81
g2
sVVuorovaikutukset ja aine
p82
g2
sVMatriisilaskennan sovelluksia
p83
g2
sVJohdatus todennkisyyslaskentaan
p84
g2
sVMitta ja integraali
p85
g2
sVJohdatus funktionaaliseen ohjelmointiin
p86
g2
sVNytteen esiksittely
p87
g2
sVGeofysiikan johdantokurssi
p88
g2
sVPelit ja peliala II - The Sequel
p89
g2
sVAine ja steily
p90
g2
sVFM Henkilkohtainen opintosuunnitelma
p91
g2
sVMekaniikka
p92
g2
sVFysiikan perusopintojen laboratoriotyt
p93
g2
sVVerkot
p94
g2
sVKompleksianalyysi I
p95
g2
sVHenkilkohtainen opintosuunnitelma ja osallistuminen opettajatuutorointiin (LuK-HOPS)
p96
g2
sVTietokannan suunnittelu
p97
g2
sVHenkilkohtainen opintosuunnitelma kandidaatintutkintoa varten
p98
g2
sVKyttjrjestelmt
p99
g2
sVDifferentiaaliyhtlt II
p100
g2
sVOhjelmistotekniikan menetelmt
p101
g2
sVLogiikka I
p102
g2
sVLmp ja energia
p103
g2
sVMatemaattiset apuneuvot I
p104
g2
sVTermofysiikan perusteet
p105
g2
sVMatemaattiset apuneuvot II
p106
g2
sVKemian tietolhteet
p107
g2
sVTietoturvan perusteet
p108
g2
sVHarjoittelu kandidaatintutkinnossa
p109
g2
sVJohdatus peliohjelmointiin
p110
g2
sVIhmisen ja tietokoneen vlinen vuorovaikutus
p111
g2
sVJohdatus polymeerikemiaan
p112
g2
sVLineaarialgebra ja matriisilaskenta I
p113
g2
sVidinkielen opinnot kandidaatintutkinnossa (kirjallinen ja suullinen osa)
p114
g2
sVMatematiikkaa kemisteille
p115
g2
sVLineaarialgebra ja matriisilaskenta II
p116
g2
sVKemian opetuksen keskeiset alueet I
p117
g2
sVKemian orientoivat opinnot
p118
g2
sVMeteorologian ja shavainnonteon perusteet
p119
g2
sVWeb-palvelinohjelmointi Ruby on Rails
p120
g2
sVScientific Writing for MSc in Computer Science
p121
g2
sVShkdynamiikka
p122
g2
sVTVT- ajokortti
p123
g2
sVLaskennan mallit
p124
g2
sVFysikaalisen kemian perustyt A
p125
g2
sVLuK Henkilkohtainen opintosuunnitelma
p126
g2
sVHOPS (FM-tutkinto)
p127
g2
sVJohdatus fysiikan opettajan opintoihin
p128
g2
sVTermofysiikka
p129
g2
sVOrgaanisen kemian perustyt II
p130
g2
sVOhjelmoinnin jatkokurssi
p131
g2
sVFysiikan matemaattiset menetelmt Ib
p132
g2
sVFysiikan matemaattiset menetelmt Ia
p133
g2
sVTietoliikenteen perusteet
p134
g2
sVEporgaaninen kemia
p135
g2
sVOhjelmointihaasteita I
p136
g2
sVTietorakenteet ja algoritmit
p137
g2
sVTVT-opinnot
p138
g2
sVOrgaanisten yhdisteiden rakenteiden selvittminen
p139
g2
sVAnalyysi I
p140
g2
sVJohdatus tilastolliseen pttelyyn
p141
g2
sVVektorianalyysi
p142
g2
sVLukiomatematiikka
p143
g2
sVKemian perusteet
p144
g2
sVKlassinen mekaniikka
p145
g2
sVOpettajien sivuainefysiikan laboratoriokurssi I
p146
g2
sVidinkielinen viestint
p147
g2
sVTieto- ja viestinttekniikan opinnot -ajokortti
p148
g2
sVOhjaajatuutorointiin osallistuminen, syyslukukausi
p149
g2
sVAaltoliike ja kentt
p150
g2
sVJohdatus koneoppimiseen
p151
g2
sVElektrodynamiikka I
p152
g2
sVThtitieteen perusteet I
p153
g2
sVLiuoskemian perusteet
p154
g2
sVEporgaanisen kemian perustyt II
p155
g2
sVMobile Middleware
p156
g2
sVCryptography and Network Security
p157
g2
sVFysiikan ksitteenmuodostus I
p158
g2
sVEporgaanisen kemian perustyt IB
p159
g2
sVEporgaanisen kemian perustyt IA
p160
g2
sVInstrumenttianalytiikan perusteet
p161
g2
sVTopologia II
p162
g2
sVHavaintojen tilastollinen ksittely
p163
g2
sVMaailmankaikkeus nyt
p164
g2
sVMatematiikan erikoiskurssi
p165
g2
sVIlmakehn termodynamiikka
p166
g2
sVOpiskelutekniikka
p167
g2
sVKaasukromatografia
p168
g2
sVOrgaaninen kemia I
p169
g2
sVData-analyysi R-ohjelmistolla
p170
g2
sVTietokone tyvlineen
p171
g2
sVHenkilkohtainen opintosuunnitelma maisterintutkintoa varten
p172
g2
sVFysiikan approbatur I
p173
g2
sVKombinatoriikka
p174
g2
sVHarjoittelu maisterintutkinnossa
p175
g2
sVVihre kemia: uusiutuvat raaka-aineet ja kestv energia
p176
g2
sVGeometria
p177
g2
sVKandidaatin tutkielma
p178
g2
sVOhjelmistotuotantoprojektiin liittyv tyelmn orientointi
p179
g2
sVMassaspektrometria
p180
g2
sVAineen rakenne I
p181
g2
sVInteractive Systems
p182
g2
sVLatex-peruskurssi
p183
g2
sVDifferentiaaliyhtlt I
p184
g2
sVYleinen kemia II
p185
g2
sVOhjelmistoarkkitehtuurit
p186
g2
sVReaalianalyysi I
p187
g2
sVMeritieteen peruskurssi
p188
g2
sVRinnakkaisohjelmointi
p189
g2
sVidinkieli
p190
g2
sVAtomien ja molekyylien rakenne
p191
g2
sVMateriaalifysiikka I
p192
g2
sVOhjaajatuutorointiin osallistuminen, kevtlukukausi
p193
g2
sVStokastiset prosessit
p194
g2
sVFysiikan ksitteenmuodostus II
p195
g2
sVTutkimustiedonhaku
p196
g2
sVTutkimuksellinen kemian opetus I
p197
g2
sVTietotekniikka-alan vaativissa ammattitehtviss tyskentely
p198
g2
sVOhjelmistotuotantoprojekti
p199
g2
sVDigitaalisen median tekniikat
p200
g2
sVTopologia I
p201
g2
sVTietojenksittelytieteen kislliopetus: Java-ohjelmointi
p202
g2
sVJohdatus yliopistomatematiikkaan
p203
g2
sVAineen rakenne
p204
g2
sVOhjelmointitekniikka (C++)
p205
g2
sVShk ja magnetismi
p206
g2
sVInternet-protokollat
p207
g2
sVIntroduction to Game Programming
p208
g2
sVOrgaaninen kemia II
p209
g2
sVTVT-ajokortti
p210
g2
sVOhjelmistotuotanto
p211
g2
sVJohdatus tekolyyn
p212
g2
sVDynamiikka
p213
g2
sVJohdatus ympristkemiaan
p214
g2
sVFysikaalisen kemian perustyt T ja D
p215
g2
sVTurvallinen tyskentely laboratoriossa
p216
g2
sVFysiikan aineopintojen laboratoriotyt I
p217
g2
sVSteilykentt ja fotonit
p218
g2
sVFysikaalisten tieteiden esittely
p219
g2
s.